##############################################################################
#                                                                            #
#                                                      24/Oct/2025  13:29:17 #
# IAR Atmel AVR C/C++ Compiler V4.12A/W32, Evaluation Version                #
# Copyright 1996-2005 IAR Systems. All rights reserved.                      #
#                                                                            #
#    Source file  =  E:\sim800Elam2560_bootnew_i2cerr_a7682e\local.c         #
#    Command line =  E:\sim800Elam2560_bootnew_i2cerr_a7682e\local.c         #
#                    --cpu=m2560 -ms -o E:\sim800Elam2560_bootnew_i2cerr_a76 #
#                    82e\Debug\Obj\ -lCN E:\sim800Elam2560_bootnew_i2cerr_a7 #
#                    682e\Debug\List\ -lA E:\sim800Elam2560_bootnew_i2cerr_a #
#                    7682e\Debug\List\ -y --initializers_in_flash -z9        #
#                    --no_inline --no_tbaa --cross_call_passes=1 --debug -e  #
#                    -I "E:\box\IAR Systems\Embedded Workbench 4.0           #
#                    Evaluation\avr\INC\" -I "E:\box\IAR Systems\Embedded    #
#                    Workbench 4.0 Evaluation\avr\INC\DLIB\" --eeprom_size   #
#                    4096 --dlib_config "E:\box\IAR Systems\Embedded         #
#                    Workbench 4.0 Evaluation\avr\LIB\DLIB\dlAVR-5s-ec-n.h"  #
#    List file    =  E:\sim800Elam2560_bootnew_i2cerr_a7682e\Debug\List\loca #
#                    l.lst                                                   #
#    Object file  =  E:\sim800Elam2560_bootnew_i2cerr_a7682e\Debug\Obj\local #
#                    .r90                                                    #
#                                                                            #
#                                                                            #
##############################################################################

E:\sim800Elam2560_bootnew_i2cerr_a7682e\local.c
      1          #include <iom2560.h>      

   \                                 In segment ABSOLUTE, at 0x22
   \   union <unnamed> volatile __io _A_PORTA
   \                     _A_PORTA:
   \   00000000                      DS 1
      2          #include <inavr.h>
      3          
      4          #include "map_ef.h"
      5          #include "map_mbus.h"
      6          #include "dfcnst.h"
      7          #include "dfpin.h"
      8          #include "dfproc.h"
      9          #include "bpa.h"
     10          
     11          //__flash char prov1[]={'P','R','O','V','1'};
     12          //__flash char prov2[]={'P','R','O','V','2'};
     13          char try_find_arhiv(unsigned long int matrix,char m);
     14          char try_form_arhiv(char m);
     15          
     16          extern void RdFromFleshToArr(unsigned int adres_flesh, unsigned char *adres_ozu,unsigned int num);
     17          extern void WrArrayToFlesh(unsigned int adres_flesh,  unsigned char *adres_ozu, unsigned int num,unsigned char flag,unsigned char znach);
     18          
     19          int crc_sum(unsigned char *ff,unsigned char kol);
     20          
     21          extern unsigned long int burst_ds_r(void);
     22                       
     23          extern unsigned int modbus_mem1[SEG1];
     24                           
     25          extern void s_port(unsigned char ch); 
     26          
     27          //extern void send_info(char size,char __flash *p,unsigned char fl_id,unsigned char id);
     28          
     29            /*                                      
     30             extern   union
     31                      {
     32                    char arr_tii_byte[32];
     33                    unsigned int  arr_tii[16];
     34                      } sstii; 
     35              
     36            */
     37           
     38               
     39                
     40          // для разрешения счета мотоминут
     41          // аналогично как в УЗЭП надо сделать
     42          union
     43                      {                        // структура байта управления
     44                       unsigned int config;
     45                       struct
     46                             {
     47                             unsigned int interval_zamera      :11;       // 
     48                             unsigned int type_zam   :2;
     49                             unsigned int TC_zam     :3;  
     50                            // unsigned int level_tc             :1;       // ТС_ON_OFF
     51                            // unsigned int nomer_tc             :3;       // номер ТС 0-7
     52                            // unsigned int enable               :1;  
     53                             }  bit;
     54                       }tii_moto; 
     55          
     56          
     57           
     58           
     59             
     60             extern  struct
     61                  { // в двоичном коде
     62                    char r_sec;
     63                    char r_min;
     64                    char r_hor;
     65                    char r_day;
     66                    char r_date;
     67                    char r_month;
     68                    char r_year;
     69                    char r_control;
     70                  }  real_time;
     71          
     72          

   \                                 In segment NEAR_Z, align 1, keep-with-next
   \   00000000                      REQUIRE `?<Segment init: NEAR_Z>`
     73          unsigned long int cnt_moto[16];
   \                     cnt_moto:
   \   00000000                      DS 64
     74          
     75           
     76            
     77           
     78          
     79          
     80           //YES!!! //YES!!! //YES!!! 
     81          
     82          //char err_cnt[8];
     83          
     84          union {
     85                 unsigned char mb[SEG3*2];//байтовый массив 

   \                                 In segment NEAR_Z, align 1, keep-with-next
   \   00000000                      REQUIRE `?<Segment init: NEAR_Z>`
     86                 } c2_byte; //1я страница конфигурации 
   \                     c2_byte:
   \   00000000                      DS 68
     87          
     88          union {
     89                 unsigned char mb[SEG99*2];//байтовый массив 

   \                                 In segment NEAR_Z, align 1, keep-with-next
   \   00000000                      REQUIRE `?<Segment init: NEAR_Z>`
     90                 } c1_byte; // страница конфигурации ГЗУ 
   \                     c1_byte:
   \   00000000                      DS 40
     91          
     92          char bit_zamer_psm,sost_psm ;
     93          unsigned long int timer_psm,unix_psm;
     94          

   \                                 In segment NEAR_Z, align 1, keep-with-next
   \   00000000                      REQUIRE `?<Segment init: NEAR_Z>`
     95          unsigned long int timer_tii[16],timer_tit[2];
   \                     timer_tii:
   \   00000000                      DS 64

   \                                 In segment NEAR_Z, align 1, keep-with-next
   \   00000000                      REQUIRE `?<Segment init: NEAR_Z>`
     96          char old_realsec[16];
   \                     old_realsec:
   \   00000000                      DS 16
     97          
     98          unsigned int lock_bit,tii_bit,tii_bit_minut;
     99          unsigned char lock_bit_tit,tit_bit;
    100          
    101          extern unsigned long int unix; 
    102          
    103          extern char kodec[4];
    104          extern unsigned char sel_modul;
    105          //char arr_cnt_tii_heap;
    106          
    107          char bit_level,bit_level_psm; 
    108          
    109          unsigned char tarhiv;

   \                                 In segment NEAR_Z, align 1, keep-with-next
   \   00000000                      REQUIRE `?<Segment init: NEAR_Z>`
    110          unsigned long int start_ttii[16],arr_tii_32[16],start_tii_gzu,delta_ys;
   \                     start_ttii:
   \   00000000                      DS 64

   \                                 In segment NEAR_Z, align 1, keep-with-next
   \   00000000                      REQUIRE `?<Segment init: NEAR_Z>`
   \                     arr_tii_32:
   \   00000000                      DS 64
    111          unsigned int cnt_sec;
    112          //YES!!!  //YES!!! //YES!!! //YES!!! 
    113          
    114          

   \                                 In segment NEAR_Z, align 1, keep-with-next
   \   00000000                      REQUIRE `?<Segment init: NEAR_Z>`
    115          unsigned long int day_accum; 
   \                     day_accum:
   \   00000000                      DS 4
    116          char day_chan,day_zap,start_day_zamer,day_good;
    117          unsigned long int day_unix,time_sutok;
   \                     day_unix:
   \   00000004                      DS 4
   \                     time_sutok:
   \   00000008                      DS 4
   \                     day_chan:
   \   0000000C                      DS 1
   \                     day_zap:
   \   0000000D                      DS 1
   \                     start_day_zamer:
   \   0000000E                      DS 1
   \                     day_good:
   \   0000000F                      DS 1
    118          

   \                                 In segment NEAR_Z, align 1, keep-with-next
   \   00000000                      REQUIRE `?<Segment init: NEAR_Z>`
    119          char err_psm,err_switch,cnt_try_ys,tekpsm,pred_mask,fin_ys,count_try,count_sboj,try_ty;
   \                     count_try:
   \   00000000                      DS 1

   \                                 In segment NEAR_Z, align 1, keep-with-next
   \   00000000                      REQUIRE `?<Segment init: NEAR_Z>`
   \                     try_ty:
   \   00000000                      DS 1

   \                                 In segment NEAR_I, align 1, keep-with-next
   \   00000000                      REQUIRE `?<Segment init: NEAR_I>`
   \                     timer_psm:
   \   00000000                      DS 4
   \   00000004                      REQUIRE `?<Initializer for timer_psm>`
   \                     unix_psm:
   \   00000004                      DS 4
   \   00000008                      REQUIRE `?<Initializer for unix_psm>`
   \                     timer_tit:
   \   00000008                      DS 8
   \   00000010                      REQUIRE `?<Initializer for timer_tit>`
   \                     start_tii_gzu:
   \   00000010                      DS 4
   \   00000014                      REQUIRE `?<Initializer for start_tii_gzu>`
   \                     delta_ys:
   \   00000014                      DS 4
   \   00000018                      REQUIRE `?<Initializer for delta_ys>`
   \                     tii_moto:
   \   00000018                      DS 2
   \   0000001A                      REQUIRE `?<Initializer for tii_moto>`
   \                     lock_bit:
   \   0000001A                      DS 2
   \   0000001C                      REQUIRE `?<Initializer for lock_bit>`
   \                     tii_bit:
   \   0000001C                      DS 2
   \   0000001E                      REQUIRE `?<Initializer for tii_bit>`
   \                     tii_bit_minut:
   \   0000001E                      DS 2
   \   00000020                      REQUIRE `?<Initializer for tii_bit_minut>`
   \                     cnt_sec:
   \   00000020                      DS 2
   \   00000022                      REQUIRE `?<Initializer for cnt_sec>`
   \                     bit_zamer_psm:
   \   00000022                      DS 1
   \   00000023                      REQUIRE `?<Initializer for bit_zamer_psm>`
   \                     lock_bit_tit:
   \   00000023                      DS 1
   \   00000024                      REQUIRE `?<Initializer for lock_bit_tit>`
   \                     tit_bit:
   \   00000024                      DS 1
   \   00000025                      REQUIRE `?<Initializer for tit_bit>`
   \                     bit_level:
   \   00000025                      DS 1
   \   00000026                      REQUIRE `?<Initializer for bit_level>`
   \                     bit_level_psm:
   \   00000026                      DS 1
   \   00000027                      REQUIRE `?<Initializer for bit_level_psm>`
   \                     tarhiv:
   \   00000027                      DS 1
   \   00000028                      REQUIRE `?<Initializer for tarhiv>`
   \                     err_psm:
   \   00000028                      DS 1
   \   00000029                      REQUIRE `?<Initializer for err_psm>`
   \                     err_switch:
   \   00000029                      DS 1
   \   0000002A                      REQUIRE `?<Initializer for err_switch>`
   \                     cnt_try_ys:
   \   0000002A                      DS 1
   \   0000002B                      REQUIRE `?<Initializer for cnt_try_ys>`
   \                     tekpsm:
   \   0000002B                      DS 1
   \   0000002C                      REQUIRE `?<Initializer for tekpsm>`
   \                     pred_mask:
   \   0000002C                      DS 1
   \   0000002D                      REQUIRE `?<Initializer for pred_mask>`
   \                     fin_ys:
   \   0000002D                      DS 1
   \   0000002E                      REQUIRE `?<Initializer for fin_ys>`
   \                     count_sboj:
   \   0000002E                      DS 1
   \   0000002F                      REQUIRE `?<Initializer for count_sboj>`
    120          char zadan_ys,global_try=3,sost_psm;
   \                     zadan_ys:
   \   0000002F                      DS 1
   \   00000030                      REQUIRE `?<Initializer for zadan_ys>`
   \                     global_try:
   \   00000030                      DS 1
   \   00000031                      REQUIRE `?<Initializer for global_try>`
   \                     sost_psm:
   \   00000031                      DS 1
   \   00000032                      REQUIRE `?<Initializer for sost_psm>`
    121           
    122          
    123          
    124          ///////// 
    125          //////////////////////
    126          void end_zamer(char m);
    127          unsigned long int set_end_time(char mi,char ch,char da,char ma,char ye);
    128          
    129          

   \                                 In segment FARCODE, align 2, keep-with-next
    130          void insert_zapis_kd(unsigned char nomer,unsigned char type)
   \                     insert_zapis_kd:
    131          {
   \   00000000   ........           CALL    ?PROLOGUE3_L09
   \   00000004   9762               SBIW    R29:R28, 18
   \   00000006   2F80               MOV     R24, R16
   \   00000008   2FA1               MOV     R26, R17
    132               unsigned char i,buf[4];
    133               unsigned char zapis[14];
    134          
    135               for(i=0;i<12;i++)zapis[i]=0;
   \   0000000A   E000               LDI     R16, 0
   \                     ??insert_zapis_kd_0:
   \   0000000C   E020               LDI     R18, 0
   \   0000000E   01FE               MOVW    R31:R30, R29:R28
   \   00000010   ....               RCALL   ?Subroutine15
   \                     ??CrossCallReturnLabel_16:
   \   00000012   300C               CPI     R16, 12
   \   00000014   F3D8               BRCS    ??insert_zapis_kd_0
    136                *(unsigned long int*)&zapis[0]=unix;
   \   00000016   ....               RCALL   ?Subroutine22
    137                zapis[4]=0;
   \                     ??CrossCallReturnLabel_219:
   \   00000018   E000               LDI     R16, 0
   \   0000001A   830C               STD     Y+4, R16
    138                zapis[5]=0;
   \   0000001C   830D               STD     Y+5, R16
    139                for(i=0;i<6;i++)zapis[4+i]=0;
   \                     ??insert_zapis_kd_1:
   \   0000001E   E020               LDI     R18, 0
   \   00000020   01FE               MOVW    R31:R30, R29:R28
   \   00000022   9634               ADIW    R31:R30, 4
   \   00000024   E010               LDI     R17, 0
   \   00000026   ....               RCALL   ?Subroutine15
   \                     ??CrossCallReturnLabel_17:
   \   00000028   3006               CPI     R16, 6
   \   0000002A   F3C8               BRCS    ??insert_zapis_kd_1
    140              //  if(nomer!=0)for(i=0;i<4;i++)zapis[6+i]=tab_proxy[(nomer-1)*4+i];   
    141                
    142                if(nomer!=0)
   \   0000002C   2388               TST     R24
   \   0000002E   F109               BREQ    ??insert_zapis_kd_2
    143                {
    144                  
    145                  if(nomer!=254)
   \   00000030   3F8E               CPI     R24, 254
   \   00000032   F0B1               BREQ    ??insert_zapis_kd_3
    146                  {
    147                  RdFromFleshToArr(A_SEG6+((nomer-1)*4),&buf[0],4);
   \   00000034   E044               LDI     R20, 4
   \   00000036   E050               LDI     R21, 0
   \   00000038   019E               MOVW    R19:R18, R29:R28
   \   0000003A   5F22               SUBI    R18, 242
   \   0000003C   4F3F               SBCI    R19, 255
   \   0000003E   9F84               MUL     R24, R20
   \   00000040   EF0C               LDI     R16, 252
   \   00000042   0E00               ADD     R0, R16
   \   00000044   E20F               LDI     R16, 47
   \   00000046   1E10               ADC     R1, R16
   \   00000048   0180               MOVW    R17:R16, R1:R0
   \   0000004A   ........           CALL    ?Subroutine39
    148                  for(i=0;i<4;i++)zapis[6+i]=buf[i]; 
   \                     ??CrossCallReturnLabel_48:
   \   0000004E   E000               LDI     R16, 0
   \                     ??insert_zapis_kd_4:
   \   00000050   E030               LDI     R19, 0
   \   00000052   01FE               MOVW    R31:R30, R29:R28
   \   00000054   963E               ADIW    R31:R30, 14
   \   00000056   0FE0               ADD     R30, R16
   \   00000058   1FF3               ADC     R31, R19
   \   0000005A   ....               RCALL   ?Subroutine8
   \                     ??CrossCallReturnLabel_6:
   \   0000005C   F498               BRCC    ??insert_zapis_kd_5
   \   0000005E   CFF8               RJMP    ??insert_zapis_kd_4
    149                  }
    150                  else
    151                  {
    152                    for(i=0;i<4;i++)zapis[6+i]=kodec[i];
   \                     ??insert_zapis_kd_3:
   \   00000060   E000               LDI     R16, 0
   \                     ??insert_zapis_kd_6:
   \   00000062   2F20               MOV     R18, R16
   \   00000064   E030               LDI     R19, 0
   \   00000066   01F9               MOVW    R31:R30, R19:R18
   \   00000068   ....               SUBI    R30, LOW((-(kodec) & 0xFFFF))
   \   0000006A   ....               SBCI    R31, (-(kodec) & 0xFFFF) >> 8
   \   0000006C   ....               RCALL   ?Subroutine8
   \                     ??CrossCallReturnLabel_7:
   \   0000006E   F450               BRCC    ??insert_zapis_kd_5
   \   00000070   CFF8               RJMP    ??insert_zapis_kd_6
    153                  }
    154                  
    155                }
    156                
    157                if(nomer==0)
    158                {
    159                 for(i=0;i<4;i++)zapis[6+i]=0x55;
   \                     ??insert_zapis_kd_2:
   \   00000072   E000               LDI     R16, 0
   \                     ??insert_zapis_kd_7:
   \   00000074   E525               LDI     R18, 85
   \   00000076   01FE               MOVW    R31:R30, R29:R28
   \   00000078   9636               ADIW    R31:R30, 6
   \   0000007A   ....               RCALL   ??Subroutine16_0
   \                     ??CrossCallReturnLabel_20:
   \   0000007C   8320               ST      Z, R18
   \   0000007E   9503               INC     R16
   \   00000080   3004               CPI     R16, 4
   \   00000082   F3C0               BRCS    ??insert_zapis_kd_7
    160                }
    161                
    162          
    163                *(unsigned int*)&zapis[4]=nomer;
   \                     ??insert_zapis_kd_5:
   \   00000084   E090               LDI     R25, 0
   \   00000086   838C               STD     Y+4, R24
   \   00000088   839D               STD     Y+5, R25
    164                *(unsigned int*)&zapis[10]=type;  
   \   0000008A   87AA               STD     Y+10, R26
   \   0000008C   879B               STD     Y+11, R25
    165                *(unsigned int*)&zapis[12]=crc_sum(&zapis[0],12); 
   \   0000008E   E02C               LDI     R18, 12
   \   00000090   018E               MOVW    R17:R16, R29:R28
   \   00000092   ....               RCALL   crc_sum
   \   00000094   870C               STD     Y+12, R16
   \   00000096   871D               STD     Y+13, R17
    166               
    167               WrArrayToFlesh(STRUCT_TII_HEAP + (int)modbus_mem1[AD_IND_DNS]*14,&zapis[0],14,0,0);      
   \   00000098   ....               RCALL   ?Subroutine44
   \                     ??CrossCallReturnLabel_53:
   \   0000009A   ....               RCALL   ??Subroutine3_0
    168               modbus_mem1[AD_IND_DNS]++;
    169               if ( modbus_mem1[AD_IND_DNS] >99 ) {modbus_mem1[AD_IND_DNS]=0;}          
    170               i=modbus_mem1[AD_IND_DNS];     
    171               WrArrayToFlesh(A_IND_DNS,0,1,1,i);
    172          }
   \                     ??CrossCallReturnLabel_269:
   \   0000009C   9662               ADIW    R29:R28, 18
   \   0000009E   E0E3               LDI     R30, 3
   \   000000A0   ........           JMP     ?EPILOGUE_B3_L09

   \                                 In segment FARCODE, align 2, keep-with-next
   \                     ?Subroutine15:
   \   00000000   0FE0               ADD     R30, R16
   \   00000002   1FF2               ADC     R31, R18
   \   00000004   8320               ST      Z, R18
   \   00000006   9503               INC     R16
   \   00000008   9508               RET

   \                                 In segment FARCODE, align 2, keep-with-next
   \                     ?Subroutine8:
   \   00000000   8110               LD      R17, Z
   \   00000002   01FE               MOVW    R31:R30, R29:R28
   \   00000004   9636               ADIW    R31:R30, 6
   \   00000006   0FE0               ADD     R30, R16
   \   00000008   1FF3               ADC     R31, R19
   \   0000000A   8310               ST      Z, R17
   \   0000000C   9503               INC     R16
   \   0000000E   3004               CPI     R16, 4
   \   00000010   9508               RET

   \                                 In segment FARCODE, align 2, keep-with-next
   \                     ?Subroutine44:
   \   00000000   E070               LDI     R23, 0
   \   00000002   E060               LDI     R22, 0
   \   00000004   019E               MOVW    R19:R18, R29:R28
   \   00000006   9508               RET

   \                                 In segment FARCODE, align 2, keep-with-next
   \                     ?Subroutine3:
   \   00000000   4F3F               SBCI    R19, 255
   \                     ??Subroutine3_0:
   \   00000002   ....               LDI     R30, LOW((modbus_mem1 + 64))
   \   00000004   ....               LDI     R31, HIGH((modbus_mem1 + 64))
   \   00000006   8140               LD      R20, Z
   \   00000008   8151               LDD     R21, Z+1
   \   0000000A   E00E               LDI     R16, 14
   \   0000000C   E010               LDI     R17, 0
   \   0000000E   ........           CALL    ?S_EC_MUL_L02
   \   00000012   5A10               SUBI    R17, 160
   \   00000014   E04E               LDI     R20, 14
   \   00000016   E050               LDI     R21, 0
   \   00000018   ........           CALL    WrArrayToFlesh
   \   0000001C   ....               LDI     R30, LOW((modbus_mem1 + 64))
   \   0000001E   ....               LDI     R31, HIGH((modbus_mem1 + 64))
   \   00000020   8100               LD      R16, Z
   \   00000022   8111               LDD     R17, Z+1
   \   00000024   5F0F               SUBI    R16, 255
   \   00000026   4F1F               SBCI    R17, 255
   \   00000028   8300               ST      Z, R16
   \   0000002A   8311               STD     Z+1, R17
   \   0000002C   3604               CPI     R16, 100
   \   0000002E   E020               LDI     R18, 0
   \   00000030   4010               SBCI    R17, 0
   \   00000032   F010               BRCS    ??Subroutine3_1
   \   00000034   8320               ST      Z, R18
   \   00000036   8321               STD     Z+1, R18
   \                     ??Subroutine3_1:
   \   00000038   8170               LD      R23, Z
   \   0000003A   E061               LDI     R22, 1
   \   0000003C   E041               LDI     R20, 1
   \   0000003E   E050               LDI     R21, 0
   \   00000040   E030               LDI     R19, 0
   \   00000042   EF00               LDI     R16, 240
   \   00000044   E013               LDI     R17, 3
   \   00000046                      REQUIRE ?Subroutine120
   \   00000046                      ;               // Fall through to label ?Subroutine120

   \                                 In segment FARCODE, align 2, keep-with-next
   \                     ?Subroutine120:
   \   00000000   ........           JMP     WrArrayToFlesh

   \                                 In segment FARCODE, align 2, keep-with-next
   \                     ?Subroutine16:
   \   00000000   0F00               LSL     R16
   \   00000002   ....               LDI     R30, LOW(c2_byte)
   \   00000004   ....               LDI     R31, (c2_byte) >> 8
   \   00000006   E010               LDI     R17, 0
   \                     ??Subroutine16_0:
   \   00000008   0FE0               ADD     R30, R16
   \   0000000A   1FF1               ADC     R31, R17
   \   0000000C   9508               RET

   \                                 In segment FARCODE, align 2, keep-with-next
   \                     ?Subroutine107:
   \   00000000   8308               ST      Y, R16
   \   00000002   8319               STD     Y+1, R17
   \   00000004   832A               STD     Y+2, R18
   \   00000006   833B               STD     Y+3, R19
   \   00000008   9508               RET

   \                                 In segment FARCODE, align 2, keep-with-next
   \                     ?Subroutine22:
   \   00000000   ....               LDI     R30, LOW(unix)
   \   00000002   ....               LDI     R31, (unix) >> 8
   \   00000004   8100               LD      R16, Z
   \   00000006   8111               LDD     R17, Z+1
   \   00000008   8122               LDD     R18, Z+2
   \   0000000A   8133               LDD     R19, Z+3
   \   0000000C   ....               RJMP    ?Subroutine107

   \                                 In segment FARCODE, align 2, keep-with-next
   \                     ?Subroutine39:
   \   00000000   ........           JMP     RdFromFleshToArr
    173          
    174          
    175          
    176          

   \                                 In segment FARCODE, align 2, keep-with-next
    177          void insert_zapis_tc(unsigned char nomer, unsigned char kod)
   \                     insert_zapis_tc:
    178          {
   \   00000000   939A               ST      -Y, R25
   \   00000002   938A               ST      -Y, R24
   \   00000004   972E               SBIW    R29:R28, 14
   \   00000006   2F40               MOV     R20, R16
   \   00000008   2F21               MOV     R18, R17
    179              unsigned char i;
    180              unsigned char zapis[14];
    181          
    182               for(i=0;i<12;i++)zapis[i]=0;
   \   0000000A   E000               LDI     R16, 0
   \                     ??insert_zapis_tc_0:
   \   0000000C   E030               LDI     R19, 0
   \   0000000E   01FE               MOVW    R31:R30, R29:R28
   \   00000010   0FE0               ADD     R30, R16
   \   00000012   1FF3               ADC     R31, R19
   \   00000014   8330               ST      Z, R19
   \   00000016   9503               INC     R16
   \   00000018   300C               CPI     R16, 12
   \   0000001A   F3C0               BRCS    ??insert_zapis_tc_0
    183               *(unsigned long int*)&zapis[0]=unix;
   \   0000001C   ........           CALL    ?Subroutine23
   \                     ??CrossCallReturnLabel_213:
   \   00000020   ....               RCALL   ?Subroutine49
    184               *(unsigned int*)&zapis[4]=nomer+1;
   \                     ??CrossCallReturnLabel_58:
   \   00000022   2F84               MOV     R24, R20
   \   00000024   E090               LDI     R25, 0
   \   00000026   9601               ADIW    R25:R24, 1
   \   00000028   838C               STD     Y+4, R24
   \   0000002A   839D               STD     Y+5, R25
    185               *(unsigned int*)&zapis[6]=modbus_mem1[AD_TS];
   \   0000002C   ....               RCALL   ?Subroutine52
   \                     ??CrossCallReturnLabel_65:
   \   0000002E   A900               LDD     R16, Z+48
   \   00000030   A911               LDD     R17, Z+49
   \   00000032   830E               STD     Y+6, R16
   \   00000034   831F               STD     Y+7, R17
    186               *(unsigned int*)&zapis[8]=(modbus_mem1[AD_TS]>>nomer) & 0x01;
   \   00000036   ........           CALL    ??Subroutine53_0
   \                     ??CrossCallReturnLabel_70:
   \   0000003A   8708               STD     Y+8, R16
   \   0000003C   8739               STD     Y+9, R19
    187               *(unsigned int*)&zapis[10]=kod; 
   \   0000003E   872A               STD     Y+10, R18
   \   00000040   873B               STD     Y+11, R19
    188               *(unsigned int*)&zapis[12]=crc_sum(&zapis[0],12); 
   \   00000042   ....               RJMP    ?Subroutine0
    189               
    190               WrArrayToFlesh(STRUCT_TII_HEAP + (int)modbus_mem1[AD_IND_DNS]*14,&zapis[0],14,0,0);      
    191               modbus_mem1[AD_IND_DNS]++;
    192               if ( modbus_mem1[AD_IND_DNS] >99 ) {modbus_mem1[AD_IND_DNS]=0;}          
    193               i=modbus_mem1[AD_IND_DNS];     
    194               WrArrayToFlesh(A_IND_DNS,0,1,1,i);
    195          }  

   \                                 In segment FARCODE, align 2, keep-with-next
   \                     ?Subroutine0:
   \   00000000   E02C               LDI     R18, 12
   \   00000002   018E               MOVW    R17:R16, R29:R28
   \   00000004   ....               RCALL   crc_sum
   \   00000006   870C               STD     Y+12, R16
   \   00000008   871D               STD     Y+13, R17
   \   0000000A   E070               LDI     R23, 0
   \   0000000C   E060               LDI     R22, 0
   \   0000000E   019E               MOVW    R19:R18, R29:R28
   \   00000010   ....               LDI     R30, LOW((modbus_mem1 + 64))
   \   00000012   ....               LDI     R31, HIGH((modbus_mem1 + 64))
   \   00000014   8140               LD      R20, Z
   \   00000016   8151               LDD     R21, Z+1
   \   00000018   E00E               LDI     R16, 14
   \   0000001A   E010               LDI     R17, 0
   \   0000001C   ........           CALL    ?S_EC_MUL_L02
   \   00000020   5A10               SUBI    R17, 160
   \   00000022   E04E               LDI     R20, 14
   \   00000024   E050               LDI     R21, 0
   \   00000026   ........           CALL    WrArrayToFlesh
   \   0000002A   ....               LDI     R30, LOW((modbus_mem1 + 64))
   \   0000002C   ....               LDI     R31, HIGH((modbus_mem1 + 64))
   \   0000002E   8100               LD      R16, Z
   \   00000030   8111               LDD     R17, Z+1
   \   00000032   5F0F               SUBI    R16, 255
   \   00000034   4F1F               SBCI    R17, 255
   \   00000036   8300               ST      Z, R16
   \   00000038   8311               STD     Z+1, R17
   \   0000003A   3604               CPI     R16, 100
   \   0000003C   E020               LDI     R18, 0
   \   0000003E   4010               SBCI    R17, 0
   \   00000040   F010               BRCS    ??Subroutine0_0
   \   00000042   8320               ST      Z, R18
   \   00000044   8321               STD     Z+1, R18
   \                     ??Subroutine0_0:
   \   00000046   8170               LD      R23, Z
   \   00000048   E061               LDI     R22, 1
   \   0000004A   E041               LDI     R20, 1
   \   0000004C   E050               LDI     R21, 0
   \   0000004E   E030               LDI     R19, 0
   \   00000050   EF00               LDI     R16, 240
   \   00000052   E013               LDI     R17, 3
   \   00000054   ........           CALL    WrArrayToFlesh
   \   00000058   962E               ADIW    R29:R28, 14
   \   0000005A                      REQUIRE ?Subroutine110
   \   0000005A                      ;               // Fall through to label ?Subroutine110

   \                                 In segment FARCODE, align 2, keep-with-next
   \                     ?Subroutine110:
   \   00000000   9189               LD      R24, Y+
   \   00000002   9199               LD      R25, Y+
   \   00000004   9508               RET

   \                                 In segment FARCODE, align 2, keep-with-next
   \                     ?Subroutine49:
   \   00000000   8208               ST      Y, R0
   \   00000002   8219               STD     Y+1, R1
   \   00000004   822A               STD     Y+2, R2
   \   00000006   823B               STD     Y+3, R3
   \   00000008   9508               RET

   \                                 In segment FARCODE, align 2, keep-with-next
   \                     ?Subroutine106:
   \   00000000   8000               LD      R0, Z
   \   00000002   8011               LDD     R1, Z+1
   \   00000004   8022               LDD     R2, Z+2
   \   00000006   8033               LDD     R3, Z+3
   \   00000008   9508               RET

   \                                 In segment FARCODE, align 2, keep-with-next
   \                     ?Subroutine52:
   \   00000000   ....               LDI     R30, LOW(modbus_mem1)
   \   00000002   ....               LDI     R31, (modbus_mem1) >> 8
   \   00000004   9508               RET

   \                                 In segment FARCODE, align 2, keep-with-next
   \                     ?Subroutine23:
   \   00000000   ....               LDI     R30, LOW(unix)
   \   00000002   ....               LDI     R31, (unix) >> 8
   \   00000004   ....               RJMP    ?Subroutine106

   \                                 In segment FARCODE, align 2, keep-with-next
   \                     ?Subroutine53:
   \   00000000   0183               MOVW    R17:R16, R7:R6
   \   00000002   2F45               MOV     R20, R21
   \                     ??Subroutine53_0:
   \   00000004   ........           CALL    ?US_SHR_L02
   \   00000008   7001               ANDI    R16, 0x01
   \   0000000A   9508               RET
    196          
    197          

   \                                 In segment FARCODE, align 2, keep-with-next
    198          void insert_zapis_tit(unsigned char nomer)
   \                     insert_zapis_tit:
    199          {
   \   00000000   939A               ST      -Y, R25
   \   00000002   938A               ST      -Y, R24
   \   00000004   972E               SBIW    R29:R28, 14
    200              unsigned char i;
    201              unsigned char zapis[14];
    202          
    203               for(i=0;i<12;i++)zapis[i]=0;
   \   00000006   E020               LDI     R18, 0
   \                     ??insert_zapis_tit_0:
   \   00000008   E010               LDI     R17, 0
   \   0000000A   01FE               MOVW    R31:R30, R29:R28
   \   0000000C   0FE2               ADD     R30, R18
   \   0000000E   1FF1               ADC     R31, R17
   \   00000010   8310               ST      Z, R17
   \   00000012   9523               INC     R18
   \   00000014   302C               CPI     R18, 12
   \   00000016   F3C0               BRCS    ??insert_zapis_tit_0
    204               *(unsigned long int*)&zapis[0]=unix;
   \   00000018   ....               RCALL   ?Subroutine21
   \                     ??CrossCallReturnLabel_200:
   \   0000001A   ....               RCALL   ?Subroutine51
    205               
    206               *(unsigned int*)&zapis[6]=modbus_mem1[AD_TIT1+nomer];
   \                     ??CrossCallReturnLabel_62:
   \   0000001C   01C8               MOVW    R25:R24, R17:R16
   \   0000001E   ....               RCALL   ??Subroutine54_0
   \                     ??CrossCallReturnLabel_73:
   \   00000020   01F8               MOVW    R31:R30, R17:R16
   \   00000022   ....               SUBI    R30, LOW((-(modbus_mem1) & 0xFFFF))
   \   00000024   ....               SBCI    R31, (-(modbus_mem1) & 0xFFFF) >> 8
   \   00000026   A100               LDD     R16, Z+32
   \   00000028   A111               LDD     R17, Z+33
   \   0000002A   830E               STD     Y+6, R16
   \   0000002C   831F               STD     Y+7, R17
    207               
    208               *(unsigned int*)&zapis[10]=16+nomer; 
   \   0000002E   9640               ADIW    R25:R24, 16
   \   00000030   878A               STD     Y+10, R24
   \   00000032   879B               STD     Y+11, R25
    209               *(unsigned int*)&zapis[12]=crc_sum(&zapis[0],12); 
   \   00000034                      REQUIRE ?Subroutine0
   \   00000034                      ;               // Fall through to label ?Subroutine0
    210               
    211               WrArrayToFlesh(STRUCT_TII_HEAP + (int)modbus_mem1[AD_IND_DNS]*14,&zapis[0],14,0,0);      
    212               modbus_mem1[AD_IND_DNS]++;
    213               if ( modbus_mem1[AD_IND_DNS] >99 ) {modbus_mem1[AD_IND_DNS]=0;}          
    214               i=modbus_mem1[AD_IND_DNS];     
    215               WrArrayToFlesh(A_IND_DNS,0,1,1,i);
    216          }  

   \                                 In segment FARCODE, align 2, keep-with-next
   \                     ?Subroutine21:
   \   00000000   ....               LDI     R30, LOW(unix)
   \   00000002   ....               LDI     R31, (unix) >> 8
   \   00000004                      REQUIRE ?Subroutine104
   \   00000004                      ;               // Fall through to label ?Subroutine104

   \                                 In segment FARCODE, align 2, keep-with-next
   \                     ?Subroutine104:
   \   00000000   8140               LD      R20, Z
   \   00000002   8151               LDD     R21, Z+1
   \   00000004   8162               LDD     R22, Z+2
   \   00000006   8173               LDD     R23, Z+3
   \   00000008   9508               RET

   \                                 In segment FARCODE, align 2, keep-with-next
   \                     ?Subroutine54:
   \   00000000   018B               MOVW    R17:R16, R23:R22
   \                     ??Subroutine54_0:
   \   00000002   0F00               LSL     R16
   \   00000004   1F11               ROL     R17
   \   00000006   9508               RET

   \                                 In segment FARCODE, align 2, keep-with-next
   \                     ?Subroutine51:
   \   00000000   8348               ST      Y, R20
   \   00000002   8359               STD     Y+1, R21
   \   00000004   836A               STD     Y+2, R22
   \   00000006   837B               STD     Y+3, R23
   \   00000008   9508               RET
    217          ////////////////////////////////////////// 10 11 2014
    218          

   \                                 In segment FARCODE, align 2, keep-with-next
    219          void day_zamer(void)
   \                     day_zamer:
    220            {  
   \   00000000   ........           CALL    ?PROLOGUE6_L09
   \   00000004                      REQUIRE ?Register_R4_is_cg_reg
   \   00000004                      REQUIRE ?Register_R5_is_cg_reg
   \   00000004   9766               SBIW    R29:R28, 22
    221              
    222              int zamer;
    223              unsigned char i;
    224          //    char i, akaka, mus;
    225            
    226            
    227              unsigned char zapis[14];
    228          
    229             union
    230             {     
    231             long int unix;
    232             char st[4]; 
    233             } tik;
    234             
    235              union
    236             {     
    237             long int acc;
    238             char a[4]; 
    239             } sum;
    240             
    241             // проверка совпадения на время суточного замера
    242             
    243             
    244              if( start_day_zamer==0) 
   \   00000006   ....               LDI     R26, LOW(day_accum)
   \   00000008   ....               LDI     R27, (day_accum) >> 8
   \   0000000A   01FD               MOVW    R31:R30, R27:R26
   \   0000000C   8506               LDD     R16, Z+14
   \   0000000E   2300               TST     R16
   \   00000010   F4B1               BRNE    ??day_zamer_0
    245                    {
    246              
    247               if (unix <= time_sutok)   return;
   \   00000012   8500               LDD     R16, Z+8
   \   00000014   8511               LDD     R17, Z+9
   \   00000016   8522               LDD     R18, Z+10
   \   00000018   8533               LDD     R19, Z+11
   \   0000001A   ....               RCALL   ?Subroutine21
   \                     ??CrossCallReturnLabel_201:
   \   0000001C   ........           CALL    ?Subroutine108
   \                     ??CrossCallReturnLabel_223:
   \   00000020   F460               BRCC    ??CrossCallReturnLabel_96
    248             
    249             
    250           // время ч
    251           time_sutok+=86400;
   \   00000022   01FD               MOVW    R31:R30, R27:R26
   \   00000024   ....               RCALL   ?Subroutine60
   \                     ??CrossCallReturnLabel_86:
   \   00000026   4F3F               SBCI    R19, 255
   \   00000028   ....               RCALL   ?Subroutine62
    252              
    253           
    254                start_day_zamer=1;
   \                     ??CrossCallReturnLabel_91:
   \   0000002A   E001               LDI     R16, 1
   \   0000002C   8706               STD     Z+14, R16
    255                day_good=0;
   \   0000002E   E000               LDI     R16, 0
   \   00000030   ....               RCALL   ?Subroutine61
    256                day_accum=0;
    257                day_chan=0;
   \                     ??CrossCallReturnLabel_89:
   \   00000032   8704               STD     Z+12, R16
    258                day_zap=0;
   \   00000034   8705               STD     Z+13, R16
    259                
    260                day_unix=unix;
   \   00000036   ........           CALL    ?Subroutine68
    261                return;
   \                     ??CrossCallReturnLabel_96:
   \   0000003A   9666               ADIW    R29:R28, 22
   \   0000003C   ....               RJMP    ?Subroutine118
    262                     }
    263                     
    264              
    265               if ( (day_chan>8) && (day_chan<14)) 
   \                     ??day_zamer_0:
   \   0000003E   8504               LDD     R16, Z+12
   \   00000040   3009               CPI     R16, 9
   \   00000042   F048               BRCS    ??day_zamer_1
   \   00000044   300E               CPI     R16, 14
   \   00000046   F438               BRCC    ??day_zamer_1
    266               {
    267               day_zap=0;day_good=0; day_accum=0;day_chan++; return; 
   \   00000048   E000               LDI     R16, 0
   \   0000004A   8705               STD     Z+13, R16
   \   0000004C   ....               RCALL   ?Subroutine61
   \                     ??CrossCallReturnLabel_90:
   \   0000004E   8504               LDD     R16, Z+12
   \   00000050   9503               INC     R16
   \   00000052   8704               STD     Z+12, R16
   \   00000054   CFF2               RJMP    ??CrossCallReturnLabel_96
    268                            
    269               }
    270                     
    271                                       zamer=c2_byte.mb[0+(2*day_chan)]+(c2_byte.mb[1+(2*day_chan)] & 7)*256;
   \                     ??day_zamer_1:
   \   00000056   ....               RCALL   ?Subroutine69
   \                     ??CrossCallReturnLabel_98:
   \   00000058   E012               LDI     R17, 2
   \   0000005A   9F01               MUL     R16, R17
   \   0000005C   0DE0               ADD     R30, R0
   \   0000005E   1DF1               ADC     R31, R1
   \   00000060   ....               RCALL   ?Subroutine65
    272                                   if (  (zamer >= 1440)  || (zamer ==0)  )  // не снимать замеры для таких каналов
   \                     ??CrossCallReturnLabel_93:
   \   00000062   3A20               CPI     R18, 160
   \   00000064   E025               LDI     R18, 5
   \   00000066   0712               CPC     R17, R18
   \   00000068   F414               BRGE    ??day_zamer_2
   \   0000006A   2B01               OR      R16, R17
   \   0000006C   F479               BRNE    ??day_zamer_3
    273                                                                  {
    274                                                                  day_zap=0;
   \                     ??day_zamer_2:
   \   0000006E   ....               RCALL   ?Subroutine13
   \                     ??CrossCallReturnLabel_245:
   \   00000070   8705               STD     Z+13, R16
    275                                                                  day_good=0;
   \   00000072   8707               STD     Z+15, R16
    276                                                      day_accum=0;
   \   00000074   E010               LDI     R17, 0
   \   00000076   930D               ST      X+, R16
   \   00000078   930D               ST      X+, R16
   \   0000007A   930D               ST      X+, R16
   \   0000007C   930C               ST      X, R16
    277                                                      day_chan++;
   \   0000007E   8504               LDD     R16, Z+12
   \   00000080   9503               INC     R16
   \   00000082   8704               STD     Z+12, R16
    278                                                   
    279                                                      if (day_chan==16) start_day_zamer=0;
   \   00000084   3100               CPI     R16, 16
   \   00000086   F6C9               BRNE    ??CrossCallReturnLabel_96
   \   00000088   8716               STD     Z+14, R17
   \   0000008A   CFD7               RJMP    ??CrossCallReturnLabel_96
    280                                                     
    281                                                      return;
    282                                                                  }
    283                                 /*
    284                                 ДОЛЖНА БЫТЬ ЧТЕНИЕ!!!!!!!!! ПРОВЕРКРЙ СРС!!!
    285                                   if (eprom_busy()==1)  return;
    286                                 p_sys1= & zapis[0];// point to arr                
    287                                 sys1= STRUCT_TII_HEAP + (int)day_zap*14;
    288                                 sys2=12;  
    289                                 sys3=sys1+12;   
    290                                 w_result(22);   
    291                                 */
    292                            
    293                                 RdFromFleshToArr(STRUCT_TII_HEAP + (int)day_zap*14,&zapis[0],14);   
   \                     ??day_zamer_3:
   \   0000008C   E04E               LDI     R20, 14
   \   0000008E   E050               LDI     R21, 0
   \   00000090   019E               MOVW    R19:R18, R29:R28
   \   00000092   5F28               SUBI    R18, 248
   \   00000094   4F3F               SBCI    R19, 255
   \   00000096   012A               MOVW    R5:R4, R21:R20
   \   00000098   01FD               MOVW    R31:R30, R27:R26
   \   0000009A   8545               LDD     R20, Z+13
   \   0000009C   ........           CALL    ?Subroutine36
   \                     ??CrossCallReturnLabel_39:
   \   000000A0   01A2               MOVW    R21:R20, R5:R4
   \   000000A2   ....               RCALL   ?Subroutine39
    294                                   
    295                                   
    296                                
    297                                 // считали правильно
    298                                 day_zap++; 
   \                     ??CrossCallReturnLabel_47:
   \   000000A4   01FD               MOVW    R31:R30, R27:R26
   \   000000A6   8505               LDD     R16, Z+13
   \   000000A8   9503               INC     R16
   \   000000AA   8705               STD     Z+13, R16
    299                                 if((*(int*)&zapis[12])==crc_sum(&zapis[0],12))  //!!!!!ДОЛЖНА БЫТЬ ЧТЕНИЕ!!!!!!!!! ПРОВЕРКРЙ СРС!!! записи
   \   000000AC   898C               LDD     R24, Y+20
   \   000000AE   899D               LDD     R25, Y+21
   \   000000B0   ....               RCALL   ?Subroutine43
   \                     ??CrossCallReturnLabel_264:
   \   000000B2   1780               CP      R24, R16
   \   000000B4   0791               CPC     R25, R17
   \   000000B6   F009               BREQ    $+2+2
   \   000000B8   C041               RJMP    ??day_zamer_4
    300                                                  {
    301                                                  
    302                                                  if ( zapis[10]!=day_chan)  goto hlop;  // ищем записи только для даного канала в куче
   \   000000BA   890A               LDD     R16, Y+18
   \   000000BC   01FD               MOVW    R31:R30, R27:R26
   \   000000BE   8514               LDD     R17, Z+12
   \   000000C0   1701               CP      R16, R17
   \   000000C2   F5E1               BRNE    ??day_zamer_4
    303                                                  
    304                                                  
    305                                                   tik.st[0]=zapis[0];
   \   000000C4   8508               LDD     R16, Y+8
   \   000000C6   8308               ST      Y, R16
    306                                                   tik.st[1]=zapis[1];
   \   000000C8   8509               LDD     R16, Y+9
   \   000000CA   8309               STD     Y+1, R16
    307                                                   tik.st[2]=zapis[2];
   \   000000CC   850A               LDD     R16, Y+10
   \   000000CE   830A               STD     Y+2, R16
    308                                                   tik.st[3]=zapis[3];  // круг назад и еще 200 секунд  чтобы не зацепить замеры
   \   000000D0   850B               LDD     R16, Y+11
   \   000000D2   830B               STD     Y+3, R16
    309                                                   if ( ( tik.unix >= (day_unix-86400-200) ) && ( tik.unix < (day_unix -10)))
   \   000000D4   ....               RCALL   ?Subroutine72
   \                     ??CrossCallReturnLabel_112:
   \   000000D6   8008               LD      R0, Y
   \   000000D8   8019               LDD     R1, Y+1
   \   000000DA   802A               LDD     R2, Y+2
   \   000000DC   2E30               MOV     R3, R16
   \   000000DE   018A               MOVW    R17:R16, R21:R20
   \   000000E0   019B               MOVW    R19:R18, R23:R22
   \   000000E2   5408               SUBI    R16, 72
   \   000000E4   4512               SBCI    R17, 82
   \   000000E6   4021               SBCI    R18, 1
   \   000000E8   4030               SBCI    R19, 0
   \   000000EA   1600               CP      R0, R16
   \   000000EC   0611               CPC     R1, R17
   \   000000EE   0622               CPC     R2, R18
   \   000000F0   0633               CPC     R3, R19
   \   000000F2   F120               BRCS    ??day_zamer_4
   \   000000F4   0180               MOVW    R17:R16, R1:R0
   \   000000F6   0191               MOVW    R19:R18, R3:R2
   \   000000F8   504A               SUBI    R20, 10
   \   000000FA   ....               RCALL   ??Subroutine71_0
   \                     ??CrossCallReturnLabel_109:
   \   000000FC   ....               RCALL   ?Subroutine108
   \                     ??CrossCallReturnLabel_224:
   \   000000FE   F4F0               BRCC    ??day_zamer_4
    310                                                                {
    311                                                              if ( (zapis[5]==5) && (zapis[4]==0xa0) ) {goto hlop;} // если есть суточная запись не писать
   \   00000100   850D               LDD     R16, Y+13
   \   00000102   3005               CPI     R16, 5
   \   00000104   F419               BRNE    ??day_zamer_5
   \   00000106   850C               LDD     R16, Y+12
   \   00000108   3A00               CPI     R16, 160
   \   0000010A   F0C1               BREQ    ??day_zamer_4
    312                                                               day_good++;
   \                     ??day_zamer_5:
   \   0000010C   8507               LDD     R16, Z+15
   \   0000010E   9503               INC     R16
   \   00000110   8707               STD     Z+15, R16
    313                                                              
    314                                                              /*
    315                                                                #if DEBUG==1
    316                                                               day_accum++;
    317                                                                #endif
    318                                                                #if DEBUG==0
    319                                                                */
    320                                                               
    321                                                                sum.a[0]=zapis[6];
   \   00000112   850E               LDD     R16, Y+14
   \   00000114   830C               STD     Y+4, R16
    322                                                                sum.a[1]=zapis[7];
   \   00000116   850F               LDD     R16, Y+15
   \   00000118   830D               STD     Y+5, R16
    323                                                                sum.a[2]=zapis[8];
   \   0000011A   8908               LDD     R16, Y+16
   \   0000011C   830E               STD     Y+6, R16
    324                                                                sum.a[3]=zapis[9];
   \   0000011E   8909               LDD     R16, Y+17
   \   00000120   830F               STD     Y+7, R16
    325                                                                day_accum=day_accum+sum.acc;
   \   00000122   810C               LDD     R16, Y+4
   \   00000124   811D               LDD     R17, Y+5
   \   00000126   812E               LDD     R18, Y+6
   \   00000128   813F               LDD     R19, Y+7
   \   0000012A   914D               LD      R20, X+
   \   0000012C   915D               LD      R21, X+
   \   0000012E   916D               LD      R22, X+
   \   00000130   917C               LD      R23, X
   \   00000132   ....               RCALL   ?Subroutine105
   \                     ??CrossCallReturnLabel_205:
   \   00000134   937C               ST      X, R23
   \   00000136   936E               ST      -X, R22
   \   00000138   935E               ST      -X, R21
   \   0000013A   934E               ST      -X, R20
    326                                                                
    327                                                               
    328                                                              //  #endif
    329                                                                }
    330                                                  } 
    331                                                  
    332                                                  
    333                                   
    334                                                  
    335                                                  
    336                                                  
    337          hlop:                                         
    338                                 if(day_zap >99)  
   \                     ??day_zamer_4:
   \   0000013C   01FD               MOVW    R31:R30, R27:R26
   \   0000013E   8505               LDD     R16, Z+13
   \   00000140   3604               CPI     R16, 100
   \   00000142   F408               BRCC    $+2+2
   \   00000144   CF7A               RJMP    ??CrossCallReturnLabel_96
    339                                                   { 
    340                                                 
    341                                                 
    342                                                 if (day_good==0) goto no_zap;   // если нет ни одного замера то нет и суточного
   \   00000146   8507               LDD     R16, Z+15
   \   00000148   2300               TST     R16
   \   0000014A   F409               BRNE    $+2+2
   \   0000014C   CF90               RJMP    ??day_zamer_2
    343                                                 
    344                                                 
    345                                                  tik.unix=day_unix+2;        
   \   0000014E   ....               RCALL   ?Subroutine75
   \                     ??CrossCallReturnLabel_114:
   \   00000150   ....               RCALL   ?Subroutine76
   \                     ??CrossCallReturnLabel_116:
   \   00000152   ....               RCALL   ?Subroutine107
    346                                                  zapis[0]=tik.st[0];
   \                     ??CrossCallReturnLabel_217:
   \   00000154   8708               STD     Y+8, R16
    347                                                  zapis[1]=tik.st[1];
   \   00000156   8719               STD     Y+9, R17
    348                                                  zapis[2]=tik.st[2];
   \   00000158   872A               STD     Y+10, R18
    349                                                  zapis[3]=tik.st[3]; 
   \   0000015A   873B               STD     Y+11, R19
    350            zapis[4]=0xa0;    // 1440  записать суточное время по этому каналу 
   \   0000015C   EA00               LDI     R16, 160
   \   0000015E   870C               STD     Y+12, R16
    351            zapis[5]=5;
   \   00000160   E005               LDI     R16, 5
   \   00000162   870D               STD     Y+13, R16
    352            
    353            
    354            zapis[10]=day_chan;    
   \   00000164   8504               LDD     R16, Z+12
   \   00000166   8B0A               STD     Y+18, R16
    355            zapis[11]=0;
   \   00000168   8A5B               STD     Y+19, R5
    356            
    357            sum.acc=day_accum;
   \   0000016A   ....               RCALL   ?Subroutine74
   \                     ??CrossCallReturnLabel_253:
   \   0000016C   830C               STD     Y+4, R16
   \   0000016E   831D               STD     Y+5, R17
   \   00000170   832E               STD     Y+6, R18
   \   00000172   833F               STD     Y+7, R19
    358            
    359            zapis[6]=sum.a[0];
   \   00000174   870E               STD     Y+14, R16
    360            zapis[7]=sum.a[1];
   \   00000176   871F               STD     Y+15, R17
    361            zapis[8]=sum.a[2];
   \   00000178   8B28               STD     Y+16, R18
    362            zapis[9]=sum.a[3]; 
   \   0000017A   8B39               STD     Y+17, R19
    363           
    364          
    365           
    366          /* ДОЛЖНА БЫТЬ ЗАПИСЬ В ОСНОВНУЮ КУЧУ!!!!!!!! 
    367                 
    368          
    369          */ 
    370           
    371            
    372          *(int*)&zapis[12]=crc_sum(&zapis[0],12);     
   \   0000017C   ....               RCALL   ?Subroutine43
   \                     ??CrossCallReturnLabel_263:
   \   0000017E   8B0C               STD     Y+20, R16
   \   00000180   8B1D               STD     Y+21, R17
    373          WrArrayToFlesh(STRUCT_TII_HEAP + (int)modbus_mem1[AD_IND_DNS]*14,&zapis[0],14,0,0);
   \   00000182   ....               RCALL   ?Subroutine44
   \                     ??CrossCallReturnLabel_54:
   \   00000184   5F28               SUBI    R18, 248
   \   00000186   ....               RCALL   ?Subroutine3
    374            
    375            
    376            
    377            
    378          /* 
    379                      arr_cnt_tii_heap++; 
    380                      if ( arr_cnt_tii_heap >99) {arr_cnt_tii_heap=0;arr_cnt_tii_heap_modbus=99;}
    381                                                   else arr_cnt_tii_heap_modbus=arr_cnt_tii_heap-1;
    382                               
    383                     
    384                       dop_sys1=CNT_TII;
    385                       dop_sys2=arr_cnt_tii_heap; 
    386                        
    387                       w_result(23);
    388                      
    389            передвижка указателя
    390            */     
    391            
    392                                  
    393                     modbus_mem1[AD_IND_DNS]++;
    394                     if ( modbus_mem1[AD_IND_DNS] >99 ) {modbus_mem1[AD_IND_DNS]=0;}
    395                     i=modbus_mem1[AD_IND_DNS];
    396                     WrArrayToFlesh(A_IND_DNS,0,1,1,i);
   \                     ??CrossCallReturnLabel_271:
   \   00000188   CF72               RJMP    ??day_zamer_2
    397          
    398            
    399                      
    400                      no_zap:
    401                      
    402                                                      day_zap=0;
    403                                                      day_good=0;
    404                                                      day_accum=0;
    405                                                      day_chan++;
    406                                                      if (day_chan==16) start_day_zamer=0;
    407                                                      
    408                                                    }
    409                     
    410              }       

   \                                 In segment FARCODE, align 2, keep-with-next
   \                     ?Subroutine61:
   \   00000000   8707               STD     Z+15, R16
   \   00000002   930D               ST      X+, R16
   \   00000004   930D               ST      X+, R16
   \   00000006   930D               ST      X+, R16
   \   00000008   930C               ST      X, R16
   \   0000000A   9508               RET

   \                                 In segment FARCODE, align 2, keep-with-next
   \                     ?Subroutine43:
   \   00000000   E02C               LDI     R18, 12
   \   00000002   018E               MOVW    R17:R16, R29:R28
   \   00000004   5F08               SUBI    R16, 248
   \   00000006                      REQUIRE ?Subroutine119
   \   00000006                      ;               // Fall through to label ?Subroutine119

   \                                 In segment FARCODE, align 2, keep-with-next
   \                     ?Subroutine119:
   \   00000000   4F1F               SBCI    R17, 255
   \   00000002   ....               RJMP    crc_sum

   \                                 In segment FARCODE, align 2, keep-with-next
   \                     ?Subroutine105:
   \   00000000   0F40               ADD     R20, R16
   \   00000002   1F51               ADC     R21, R17
   \   00000004   1F62               ADC     R22, R18
   \   00000006   1F73               ADC     R23, R19
   \   00000008   9508               RET

   \                                 In segment FARCODE, align 2, keep-with-next
   \                     ?Subroutine71:
   \   00000000   5041               SUBI    R20, 1
   \                     ??Subroutine71_0:
   \   00000002   4050               SBCI    R21, 0
   \   00000004   4060               SBCI    R22, 0
   \   00000006   4070               SBCI    R23, 0
   \   00000008   9508               RET

   \                                 In segment FARCODE, align 2, keep-with-next
   \                     ?Subroutine69:
   \   00000000   ....               LDI     R30, LOW(c2_byte)
   \   00000002   ....               LDI     R31, (c2_byte) >> 8
   \   00000004   9508               RET

   \                                 In segment FARCODE, align 2, keep-with-next
   \                     ?Subroutine60:
   \   00000000   5800               SUBI    R16, 128
   \   00000002   4A1E               SBCI    R17, 174
   \   00000004   4F2E               SBCI    R18, 254
   \   00000006   9508               RET

   \                                 In segment FARCODE, align 2, keep-with-next
   \                     ?Subroutine65:
   \   00000000   8120               LD      R18, Z
   \   00000002   8101               LDD     R16, Z+1
   \   00000004   7007               ANDI    R16, 0x07
   \   00000006   2F10               MOV     R17, R16
   \   00000008   2F02               MOV     R16, R18
   \   0000000A   9508               RET

   \                                 In segment FARCODE, align 2, keep-with-next
   \                     ?Subroutine62:
   \   00000000   8700               STD     Z+8, R16
   \   00000002   8711               STD     Z+9, R17
   \   00000004   8722               STD     Z+10, R18
   \   00000006   8733               STD     Z+11, R19
   \   00000008   9508               RET

   \                                 In segment FARCODE, align 2, keep-with-next
   \                     ?Subroutine76:
   \   00000000   5F0E               SUBI    R16, 254
   \   00000002   4F1F               SBCI    R17, 255
   \   00000004   4F2F               SBCI    R18, 255
   \   00000006   4F3F               SBCI    R19, 255
   \   00000008   9508               RET

   \                                 In segment FARCODE, align 2, keep-with-next
   \                     ?Subroutine75:
   \   00000000   8104               LDD     R16, Z+4
   \   00000002   8115               LDD     R17, Z+5
   \   00000004   8126               LDD     R18, Z+6
   \   00000006   8137               LDD     R19, Z+7
   \   00000008   9508               RET

   \                                 In segment FARCODE, align 2, keep-with-next
   \                     ?Subroutine13:
   \   00000000   E000               LDI     R16, 0
   \   00000002                      REQUIRE ?Subroutine115
   \   00000002                      ;               // Fall through to label ?Subroutine115

   \                                 In segment FARCODE, align 2, keep-with-next
   \                     ?Subroutine115:
   \   00000000   01FD               MOVW    R31:R30, R27:R26
   \   00000002   9508               RET

   \                                 In segment FARCODE, align 2, keep-with-next
   \                     ?Subroutine118:
   \   00000000   E0E6               LDI     R30, 6
   \   00000002   ........           JMP     ?EPILOGUE_B6_L09

   \                                 In segment FARCODE, align 2, keep-with-next
   \                     ?Subroutine74:
   \   00000000   910D               LD      R16, X+
   \   00000002   911D               LD      R17, X+
   \   00000004   912D               LD      R18, X+
   \   00000006   913C               LD      R19, X
   \   00000008                      REQUIRE ?Subroutine116
   \   00000008                      ;               // Fall through to label ?Subroutine116

   \                                 In segment FARCODE, align 2, keep-with-next
   \                     ?Subroutine116:
   \   00000000   9713               SBIW    R27:R26, 3
   \   00000002   9508               RET

   \                                 In segment FARCODE, align 2, keep-with-next
   \                     ?Subroutine72:
   \   00000000   8144               LDD     R20, Z+4
   \   00000002   8155               LDD     R21, Z+5
   \   00000004   8166               LDD     R22, Z+6
   \   00000006   8177               LDD     R23, Z+7
   \   00000008   9508               RET

   \                                 In segment FARCODE, align 2, keep-with-next
   \                     ?Subroutine68:
   \   00000000   8344               STD     Z+4, R20
   \   00000002   8355               STD     Z+5, R21
   \   00000004   8366               STD     Z+6, R22
   \   00000006   8377               STD     Z+7, R23
   \   00000008   9508               RET

   \                                 In segment FARCODE, align 2, keep-with-next
   \                     ?Subroutine108:
   \   00000000   1704               CP      R16, R20
   \   00000002   0715               CPC     R17, R21
   \   00000004   0726               CPC     R18, R22
   \   00000006   0737               CPC     R19, R23
   \   00000008   9508               RET

   \                                 In segment FARCODE, align 2, keep-with-next
   \                     ?Subroutine36:
   \   00000000   E00E               LDI     R16, 14
   \   00000002   E010               LDI     R17, 0
   \   00000004   ........           CALL    ?S_EC_MUL_L02
   \   00000008   5A10               SUBI    R17, 160
   \   0000000A   9508               RET
    411          
    412          
    413          /////////////////////////////////////////
    414          
    415          
    416          
    417          ////////////////////////////////////////////// 10 11 14
    418          

   \                                 In segment FARCODE, align 2, keep-with-next
    419          unsigned long int set_time_day_zamer(char date,char month,char year)
   \                     set_time_day_zamer:
    420          { unsigned long int sek_32;
   \   00000000   ........           CALL    ?PROLOGUE5_L09
   \   00000004                      REQUIRE ?Register_R4_is_cg_reg
   \   00000004   2E40               MOV     R4, R16
   \   00000006   2F81               MOV     R24, R17
   \   00000008   2FA2               MOV     R26, R18
    421            struct
    422                  { // в двоичном коде
    423                    char r_sec;
    424                    char r_min;
    425                    char r_hor;
    426                    char r_day;
    427                    char r_date;
    428                    char r_month;
    429                    char r_year;
    430                    char r_control;
    431                  }  real_time;   
    432                   
    433                  real_time.r_sec=c2_byte.mb[0x12*2];
    434                  real_time.r_min=c2_byte.mb[0x11*2];
    435                  real_time.r_hor=c2_byte.mb[0x10*2];
    436                  real_time.r_date=date;
    437                  real_time.r_month=month;
    438                  real_time.r_year=year; 
    439          //  real_time.r_year = real_time.r_year & 0x7F; 
    440          //  if (real_time.r_year > 99) real_time.r_year = 0; 
    441          //  if ( (real_time.r_date > 31) | (real_time.r_date <1) ) real_time.r_date = 1;    
    442          //  if (real_time.r_hor > 60) real_time.r_hor = 0;      
    443          //  if (real_time.r_min > 60) real_time.r_min = 0;  
    444          //  if (real_time.r_sec > 60) real_time.r_sec = 1;  
    445          //  
    446             sek_32 = ( ( (unsigned long int)real_time.r_year * 365 ) + (real_time.r_year>>2) );
   \   0000000A   2F42               MOV     R20, R18
   \   0000000C   ....               RCALL   ?Subroutine5
    447             
    448               switch ( real_time.r_month )
   \                     ??CrossCallReturnLabel_208:
   \   0000000E   2D04               MOV     R16, R4
   \   00000010   ....               RCALL   ?Subroutine37
   \                     ??CrossCallReturnLabel_41:
   \   00000012   F0B9               BREQ    ??set_time_day_zamer_0
   \   00000014   95EA               DEC     R30
   \   00000016   F0C1               BREQ    ??set_time_day_zamer_1
   \   00000018   95EA               DEC     R30
   \   0000001A   F0C1               BREQ    ??set_time_day_zamer_2
   \   0000001C   95EA               DEC     R30
   \   0000001E   F0C1               BREQ    ??set_time_day_zamer_3
   \   00000020   95EA               DEC     R30
   \   00000022   F0C1               BREQ    ??set_time_day_zamer_4
   \   00000024   95EA               DEC     R30
   \   00000026   F0C1               BREQ    ??set_time_day_zamer_5
   \   00000028   95EA               DEC     R30
   \   0000002A   F0C1               BREQ    ??set_time_day_zamer_6
   \   0000002C   95EA               DEC     R30
   \   0000002E   F0C1               BREQ    ??set_time_day_zamer_7
   \   00000030   95EA               DEC     R30
   \   00000032   F0C1               BREQ    ??set_time_day_zamer_8
   \   00000034   95EA               DEC     R30
   \   00000036   F0C1               BREQ    ??set_time_day_zamer_9
   \   00000038   95EA               DEC     R30
   \   0000003A   F0C1               BREQ    ??set_time_day_zamer_10
    449                   {
    450                    case 1: sek_32 = (sek_32 + real_time.r_date); break;
   \   0000003C   0D44               ADD     R20, R4
   \   0000003E   1F53               ADC     R21, R19
   \   00000040   C019               RJMP    ??set_time_day_zamer_11
    451                    case 2: sek_32 = (sek_32 + real_time.r_date + 31); break;
   \                     ??set_time_day_zamer_0:
   \   00000042   5E01               SUBI    R16, 225
   \                     ??set_time_day_zamer_12:
   \   00000044   4F1F               SBCI    R17, 255
   \   00000046   C014               RJMP    ??set_time_day_zamer_13
    452                    case 3: sek_32 = (sek_32 + real_time.r_date + 59); break;
   \                     ??set_time_day_zamer_1:
   \   00000048   5C05               SUBI    R16, 197
   \   0000004A   CFFC               RJMP    ??set_time_day_zamer_12
    453                    case 4: sek_32 = (sek_32 + real_time.r_date + 90); break;
   \                     ??set_time_day_zamer_2:
   \   0000004C   5A06               SUBI    R16, 166
   \   0000004E   CFFA               RJMP    ??set_time_day_zamer_12
    454                    case 5: sek_32 = (sek_32 + real_time.r_date + 120); break;
   \                     ??set_time_day_zamer_3:
   \   00000050   5808               SUBI    R16, 136
   \   00000052   CFF8               RJMP    ??set_time_day_zamer_12
    455                    case 6: sek_32 = (sek_32 + real_time.r_date + 151); break;
   \                     ??set_time_day_zamer_4:
   \   00000054   5609               SUBI    R16, 105
   \   00000056   CFF6               RJMP    ??set_time_day_zamer_12
    456                    case 7: sek_32 = (sek_32 + real_time.r_date + 181); break;
   \                     ??set_time_day_zamer_5:
   \   00000058   540B               SUBI    R16, 75
   \   0000005A   CFF4               RJMP    ??set_time_day_zamer_12
    457                    case 8: sek_32 = (sek_32 + real_time.r_date + 212); break;
   \                     ??set_time_day_zamer_6:
   \   0000005C   520C               SUBI    R16, 44
   \   0000005E   CFF2               RJMP    ??set_time_day_zamer_12
    458                    case 9: sek_32 = (sek_32 + real_time.r_date + 243); break;
   \                     ??set_time_day_zamer_7:
   \   00000060   500D               SUBI    R16, 13
   \   00000062   CFF0               RJMP    ??set_time_day_zamer_12
    459                    case 10: sek_32 = (sek_32 + real_time.r_date + 273); break;
   \                     ??set_time_day_zamer_8:
   \   00000064   5E0F               SUBI    R16, 239
   \   00000066   C003               RJMP    ??set_time_day_zamer_14
    460                    case 11: sek_32 = (sek_32 + real_time.r_date + 304); break;
   \                     ??set_time_day_zamer_9:
   \   00000068   5D00               SUBI    R16, 208
   \   0000006A   C001               RJMP    ??set_time_day_zamer_14
    461                    case 12: sek_32 = (sek_32 + real_time.r_date + 334); break;
   \                     ??set_time_day_zamer_10:
   \   0000006C   5B02               SUBI    R16, 178
   \                     ??set_time_day_zamer_14:
   \   0000006E   4F1E               SBCI    R17, 254
   \                     ??set_time_day_zamer_13:
   \   00000070   0F40               ADD     R20, R16
   \   00000072   1F51               ADC     R21, R17
   \                     ??set_time_day_zamer_11:
   \   00000074   1F63               ADC     R22, R19
   \   00000076   1F73               ADC     R23, R19
    462                    default:
    463                    sek_32 = (sek_32 + real_time.r_date);
    464                   }
    465              if ( (real_time.r_year & 0x03) == 0 )
   \   00000078   70A3               ANDI    R26, 0x03
   \   0000007A   F419               BRNE    ??CrossCallReturnLabel_110
    466                   {
    467                    if (real_time.r_month < 3) sek_32--;
   \   0000007C   3083               CPI     R24, 3
   \   0000007E   F408               BRCC    ??CrossCallReturnLabel_110
   \   00000080   ....               RCALL   ?Subroutine71
    468                   }
    469            sek_32 = ((sek_32 * 86400)+((unsigned long int)real_time.r_hor * 3600)+((unsigned long int)real_time.r_min * 60)+real_time.r_sec );
    470            sek_32=sek_32+2;   // чтобы избежать 00 часов
    471           // cek_Unix_2000 = 946684800   
    472             return sek_32;
   \                     ??CrossCallReturnLabel_110:
   \   00000082   ....               RCALL   ?Subroutine78
   \                     ??CrossCallReturnLabel_233:
   \   00000084   ....               RCALL   ?Subroutine69
   \                     ??CrossCallReturnLabel_99:
   \   00000086   A140               LDD     R20, Z+32
   \   00000088   ....               RCALL   ?Subroutine6
   \                     ??CrossCallReturnLabel_231:
   \   0000008A   A142               LDD     R20, Z+34
   \   0000008C   ....               RCALL   ?Subroutine7
   \                     ??CrossCallReturnLabel_4:
   \   0000008E   A144               LDD     R20, Z+36
   \   00000090   ....               RCALL   ?Subroutine105
   \                     ??CrossCallReturnLabel_206:
   \   00000092   5F4E               SUBI    R20, 254
   \   00000094   4F5F               SBCI    R21, 255
   \   00000096   4F6F               SBCI    R22, 255
   \   00000098   4F7F               SBCI    R23, 255
   \   0000009A   018A               MOVW    R17:R16, R21:R20
   \   0000009C   019B               MOVW    R19:R18, R23:R22
   \   0000009E                      REQUIRE ?Subroutine121
   \   0000009E                      ;               // Fall through to label ?Subroutine121
    473          } 

   \                                 In segment FARCODE, align 2, keep-with-next
   \                     ?Subroutine121:
   \   00000000   E0E5               LDI     R30, 5
   \   00000002   ........           JMP     ?EPILOGUE_B5_L09

   \                                 In segment FARCODE, align 2, keep-with-next
   \                     ?Subroutine78:
   \   00000000   E800               LDI     R16, 128
   \   00000002   E511               LDI     R17, 81
   \   00000004   E021               LDI     R18, 1
   \   00000006   ........           CALL    ?L_EC_MUL_L03
   \   0000000A                      REQUIRE ?Subroutine111
   \   0000000A                      ;               // Fall through to label ?Subroutine111

   \                                 In segment FARCODE, align 2, keep-with-next
   \                     ?Subroutine111:
   \   00000000   01C8               MOVW    R25:R24, R17:R16
   \   00000002   01D9               MOVW    R27:R26, R19:R18
   \   00000004   9508               RET

   \                                 In segment FARCODE, align 2, keep-with-next
   \                     ?Subroutine37:
   \   00000000   E010               LDI     R17, 0
   \   00000002   E030               LDI     R19, 0
   \   00000004   2FE8               MOV     R30, R24
   \   00000006   50E2               SUBI    R30, 2
   \   00000008   9508               RET

   \                                 In segment FARCODE, align 2, keep-with-next
   \                     ?Subroutine7:
   \   00000000   E30C               LDI     R16, 60
   \   00000002   E010               LDI     R17, 0
   \   00000004   E020               LDI     R18, 0
   \   00000006   E030               LDI     R19, 0
   \   00000008   ........           CALL    ?L_EC_MUL_L03
   \   0000000C   0F08               ADD     R16, R24
   \   0000000E   1F19               ADC     R17, R25
   \   00000010   1F2A               ADC     R18, R26
   \   00000012   1F3B               ADC     R19, R27
   \   00000014   9508               RET

   \                                 In segment FARCODE, align 2, keep-with-next
   \                     ?Subroutine6:
   \   00000000   E050               LDI     R21, 0
   \   00000002   E060               LDI     R22, 0
   \   00000004   E070               LDI     R23, 0
   \   00000006   E100               LDI     R16, 16
   \   00000008   E01E               LDI     R17, 14
   \   0000000A   E020               LDI     R18, 0
   \   0000000C   E030               LDI     R19, 0
   \   0000000E   ........           CALL    ?L_EC_MUL_L03
   \   00000012   0F08               ADD     R16, R24
   \   00000014   1F19               ADC     R17, R25
   \   00000016   1F2A               ADC     R18, R26
   \   00000018   1F3B               ADC     R19, R27
   \   0000001A   ....               RJMP    ?Subroutine111

   \                                 In segment FARCODE, align 2, keep-with-next
   \                     ?Subroutine5:
   \   00000000   E050               LDI     R21, 0
   \   00000002   E060               LDI     R22, 0
   \   00000004   E070               LDI     R23, 0
   \   00000006   E60D               LDI     R16, 109
   \   00000008   E011               LDI     R17, 1
   \   0000000A   E020               LDI     R18, 0
   \   0000000C   E030               LDI     R19, 0
   \   0000000E   ........           CALL    ?L_EC_MUL_L03
   \   00000012   9546               LSR     R20
   \   00000014   9546               LSR     R20
   \   00000016   ....               RJMP    ?Subroutine105
    474          
    475          
    476          
    477            
    478          
    479          

   \                                 In segment FARCODE, align 2, keep-with-next
    480             void  end_zamer(char m)
   \                     end_zamer:
    481          {
   \   00000000   ........           CALL    ?PROLOGUE13_L09
   \   00000004                      REQUIRE ?Register_R4_is_cg_reg
   \   00000004                      REQUIRE ?Register_R5_is_cg_reg
   \   00000004                      REQUIRE ?Register_R6_is_cg_reg
   \   00000004                      REQUIRE ?Register_R7_is_cg_reg
   \   00000004                      REQUIRE ?Register_R8_is_cg_reg
   \   00000004                      REQUIRE ?Register_R9_is_cg_reg
   \   00000004                      REQUIRE ?Register_R10_is_cg_reg
   \   00000004                      REQUIRE ?Register_R11_is_cg_reg
   \   00000004                      REQUIRE ?Register_R12_is_cg_reg
   \   00000004   2EC0               MOV     R12, R16
    482          unsigned long int u_i;
    483          unsigned int zamer;                                     
    484                                        ////////////////////
    485                                       
    486                                                      
    487                                                      zamer=c2_byte.mb[0+(2*m)]+(c2_byte.mb[1+(2*m)] & 7)*256;
   \   00000006   2F60               MOV     R22, R16
   \   00000008   E070               LDI     R23, 0
   \   0000000A   ....               LDI     R16, LOW(c2_byte)
   \   0000000C   2E60               MOV     R6, R16
   \   0000000E   ....               LDI     R16, (c2_byte) >> 8
   \   00000010   2E70               MOV     R7, R16
   \   00000012   ....               RCALL   ?Subroutine54
   \                     ??CrossCallReturnLabel_74:
   \   00000014   0123               MOVW    R5:R4, R7:R6
   \   00000016   0E40               ADD     R4, R16
   \   00000018   1E51               ADC     R5, R17
   \   0000001A   01F2               MOVW    R31:R30, R5:R4
   \   0000001C   8100               LD      R16, Z
   \   0000001E   8141               LDD     R20, Z+1
   \   00000020   7047               ANDI    R20, 0x07
   \   00000022   2F54               MOV     R21, R20
   \   00000024   2F40               MOV     R20, R16
    488                                                      if ( zamer> 1440) {timer_tii[m]=0;cnt_moto[m]=0;return;}
   \   00000026   ....               RCALL   ?Subroutine54
   \                     ??CrossCallReturnLabel_75:
   \   00000028   ....               RCALL   ??Subroutine54_0
   \                     ??CrossCallReturnLabel_76:
   \   0000002A   ....               LDI     R24, LOW(timer_tii)
   \   0000002C   ....               LDI     R25, (timer_tii) >> 8
   \   0000002E   0F80               ADD     R24, R16
   \   00000030   1F91               ADC     R25, R17
   \   00000032   ....               LDI     R30, LOW(cnt_moto)
   \   00000034   ....               LDI     R31, (cnt_moto) >> 8
   \   00000036   ....               RCALL   ??Subroutine16_0
   \                     ??CrossCallReturnLabel_21:
   \   00000038   3A41               CPI     R20, 161
   \   0000003A   E005               LDI     R16, 5
   \   0000003C   0750               CPC     R21, R16
   \   0000003E   F048               BRCS    ??end_zamer_0
   \   00000040   01DC               MOVW    R27:R26, R25:R24
   \   00000042   937D               ST      X+, R23
   \   00000044   937D               ST      X+, R23
   \   00000046   937D               ST      X+, R23
   \   00000048   937C               ST      X, R23
   \   0000004A   ....               RCALL   ?Subroutine81
   \                     ??CrossCallReturnLabel_130:
   \   0000004C   E0ED               LDI     R30, 13
   \   0000004E   ........           JMP     ?EPILOGUE_B13_L09
    489                                                      cnt_moto[m]=0;
   \                     ??end_zamer_0:
   \   00000052   ....               RCALL   ?Subroutine81
    490                                                      old_realsec[m]=real_time.r_sec;
   \                     ??CrossCallReturnLabel_131:
   \   00000054   ....               LDI     R26, LOW(real_time)
   \   00000056   ....               LDI     R27, (real_time) >> 8
   \   00000058   910C               LD      R16, X
   \   0000005A   01FB               MOVW    R31:R30, R23:R22
   \   0000005C   ....               SUBI    R30, LOW((-(old_realsec) & 0xFFFF))
   \   0000005E   ....               SBCI    R31, (-(old_realsec) & 0xFFFF) >> 8
   \   00000060   8300               ST      Z, R16
    491                                                   switch(zamer)
   \   00000062   018A               MOVW    R17:R16, R21:R20
   \   00000064   ....               LDI     R30, LOW(`?<Jumptable for end_zamer>_0`)
   \   00000066   ....               LDI     R31, (`?<Jumptable for end_zamer>_0`) >> 16
   \   00000068   BFFB               OUT     0x3B, R31
   \   0000006A   ....               LDI     R31, HIGH(`?<Jumptable for end_zamer>_0`)
   \   0000006C   ........           JMP     ?SV_SWITCH_L06
    492                                                        {              
    493                                                           
    494                                                           case 10: 
    495                                                           {  
    496                                                         
    497                            timer_tii[m]=set_end_time((real_time.r_min/10)*10,
    498                                                       real_time.r_hor,
    499                                                       real_time.r_date,
    500                                                       real_time.r_month,
    501                                                       real_time.r_year)+600; 
   \                     ??end_zamer_1:
   \   00000070   ....               RCALL   ?Subroutine55
   \                     ??CrossCallReturnLabel_78:
   \   00000072   ....               RCALL   ?Subroutine80
   \                     ??CrossCallReturnLabel_123:
   \   00000074   E01A               LDI     R17, 10
   \   00000076   ....               RCALL   ?Subroutine64
   \                     ??CrossCallReturnLabel_278:
   \   00000078   5A08               SUBI    R16, 168
   \   0000007A   4F1D               SBCI    R17, 253
   \   0000007C   C038               RJMP    ??end_zamer_2
    502                                                       
    503                                                       lock_bit= lock_bit & ~(1<<m);
    504                                                          
    505                                                           break;
    506                                                           } 
    507                                                          
    508                                                           
    509                                                            case 20: 
    510                                                           { 
    511                            timer_tii[m]=set_end_time((real_time.r_min/20)*20,
    512                                                       real_time.r_hor,
    513                                                       real_time.r_date,
    514                                                       real_time.r_month,
    515                                                       real_time.r_year)+1200; 
   \                     ??end_zamer_3:
   \   0000007E   ....               RCALL   ?Subroutine55
   \                     ??CrossCallReturnLabel_79:
   \   00000080   E144               LDI     R20, 20
   \   00000082   ....               RCALL   ??Subroutine80_0
   \                     ??CrossCallReturnLabel_124:
   \   00000084   E114               LDI     R17, 20
   \   00000086   ....               RCALL   ?Subroutine64
   \                     ??CrossCallReturnLabel_277:
   \   00000088   5500               SUBI    R16, 80
   \   0000008A   4F1B               SBCI    R17, 251
   \   0000008C   C030               RJMP    ??end_zamer_2
    516                                                       
    517                                                         lock_bit= lock_bit & ~(1<<m);
    518                                                        
    519                                                           break;
    520                                                           }  
    521                                                            case 30: 
    522                                                           {
    523                              timer_tii[m]=set_end_time((real_time.r_min/30)*30,
    524                                                       real_time.r_hor,
    525                                                       real_time.r_date,
    526                                                       real_time.r_month,
    527                                                       real_time.r_year)+1800;                                
   \                     ??end_zamer_4:
   \   0000008E   ....               RCALL   ?Subroutine55
   \                     ??CrossCallReturnLabel_80:
   \   00000090   E14E               LDI     R20, 30
   \   00000092   ....               RCALL   ??Subroutine80_0
   \                     ??CrossCallReturnLabel_125:
   \   00000094   E11E               LDI     R17, 30
   \   00000096   ....               RCALL   ?Subroutine64
   \                     ??CrossCallReturnLabel_276:
   \   00000098   5F08               SUBI    R16, 248
   \   0000009A   4F18               SBCI    R17, 248
   \   0000009C   C028               RJMP    ??end_zamer_2
    528                                                             
    529                                                         lock_bit= lock_bit & ~(1<<m);
    530                                                          
    531                                                           break;
    532                                                           }
    533                                                           
    534                                                           case 60: 
    535                                                           {
    536                            timer_tii[m]=set_end_time(0,
    537                                                       real_time.r_hor,
    538                                                       real_time.r_date,
    539                                                       real_time.r_month,
    540                                                       real_time.r_year)+3600;                                  
   \                     ??end_zamer_5:
   \   0000009E   ....               RCALL   ?Subroutine56
   \                     ??CrossCallReturnLabel_81:
   \   000000A0   ....               RCALL   ?Subroutine9
   \                     ??CrossCallReturnLabel_8:
   \   000000A2   C025               RJMP    ??end_zamer_2
    541                                                             
    542                                                         lock_bit= lock_bit & ~(1<<m);
    543                                                          
    544                                                           break;
    545                                                           }
    546                                                         
    547                                                           case 120: 
    548                                                           { 
    549                           timer_tii[m]=set_end_time(0,
    550                                                       (real_time.r_hor/2)*2,
    551                                                       real_time.r_date,
    552                                                       real_time.r_month,
    553                                                       real_time.r_year)+7200;                                   
   \                     ??end_zamer_6:
   \   000000A4   ....               RCALL   ?Subroutine56
   \                     ??CrossCallReturnLabel_82:
   \   000000A6   7F1E               ANDI    R17, 0xFE
   \   000000A8   ....               RCALL   ?Subroutine10
   \                     ??CrossCallReturnLabel_10:
   \   000000AA   C021               RJMP    ??end_zamer_2
    554                                                         
    555                                                         lock_bit= lock_bit & ~(1<<m);
    556                                                          
    557                                                           break;
    558                                                           } 
    559                                                         
    560                                                           case 240: 
    561                                                           { 
    562                           timer_tii[m]=set_end_time(0,
    563                                                       (real_time.r_hor/4)*4,
    564                                                       real_time.r_date,
    565                                                       real_time.r_month,
    566                                                       real_time.r_year)+14400;                                   
   \                     ??end_zamer_7:
   \   000000AC   ....               RCALL   ?Subroutine56
   \                     ??CrossCallReturnLabel_83:
   \   000000AE   7F1C               ANDI    R17, 0xFC
   \   000000B0   ....               RCALL   ?Subroutine11
   \                     ??CrossCallReturnLabel_12:
   \   000000B2   C01D               RJMP    ??end_zamer_2
    567                                                        
    568                                                         lock_bit= lock_bit & ~(1<<m);
    569                                                         
    570                                                           break;
    571                                                           }
    572                                                           
    573                                                           case 360: 
    574                                                           {
    575                     timer_tii[m]=set_end_time(0,
    576                                                       (real_time.r_hor/6)*6,
    577                                                       real_time.r_date,
    578                                                       real_time.r_month,
    579                                                       real_time.r_year)+21600;                                   
   \                     ??end_zamer_8:
   \   000000B4   01FD               MOVW    R31:R30, R27:R26
   \   000000B6   8066               LDD     R6, Z+6
   \   000000B8   8135               LDD     R19, Z+5
   \   000000BA   8124               LDD     R18, Z+4
   \   000000BC   8102               LDD     R16, Z+2
   \   000000BE   ....               RCALL   ?Subroutine79
   \                     ??CrossCallReturnLabel_121:
   \   000000C0   2D46               MOV     R20, R6
   \   000000C2   ....               RCALL   ?Subroutine12
   \                     ??CrossCallReturnLabel_14:
   \   000000C4   C014               RJMP    ??end_zamer_2
    580                                                        
    581                                                         lock_bit= lock_bit & ~(1<<m);
    582                                                        
    583                                                           break;
    584                                                           }    
    585                                                           case 0: {timer_tii[m]=0;break;}
   \                     ??end_zamer_9:
   \   000000C6   E000               LDI     R16, 0
   \   000000C8   01FC               MOVW    R31:R30, R25:R24
   \   000000CA   8300               ST      Z, R16
   \   000000CC   8301               STD     Z+1, R16
   \   000000CE   8302               STD     Z+2, R16
   \   000000D0   8303               STD     Z+3, R16
   \   000000D2   CFBC               RJMP    ??CrossCallReturnLabel_130
    586                                                           
    587                                                           
    588                                             case 1440:
    589                                                                {  
    590                                               u_i=set_end_time(c2_byte.mb[34],
    591                                                       c2_byte.mb[32],
    592                                                       real_time.r_date,
    593                                                       real_time.r_month,
    594                                                       real_time.r_year)+(unsigned long int)c2_byte.mb[36];                                   
   \                     ??end_zamer_10:
   \   000000D4   01FD               MOVW    R31:R30, R27:R26
   \   000000D6   8146               LDD     R20, Z+6
   \   000000D8   8135               LDD     R19, Z+5
   \   000000DA   8124               LDD     R18, Z+4
   \   000000DC   ....               RCALL   ?Subroutine69
   \                     ??CrossCallReturnLabel_100:
   \   000000DE   ....               RCALL   ?Subroutine82
   \                     ??CrossCallReturnLabel_132:
   \   000000E0   ....               RCALL   ?Subroutine69
   \                     ??CrossCallReturnLabel_101:
   \   000000E2   ....               RCALL   ?Subroutine1
    595                                                if (u_i <= unix ) timer_tii[m]=u_i+86400;  // если время окончания замера меньше текущего
   \                     ??CrossCallReturnLabel_0:
   \   000000E4   F010               BRCS    ??end_zamer_11
   \   000000E6   ....               RCALL   ?Subroutine60
   \                     ??CrossCallReturnLabel_87:
   \   000000E8   C003               RJMP    ??end_zamer_12
    596                                                else  timer_tii[m]=u_i+5;       
   \                     ??end_zamer_11:
   \   000000EA   5F0B               SUBI    R16, 251
   \   000000EC   4F1F               SBCI    R17, 255
   \                     ??end_zamer_2:
   \   000000EE   4F2F               SBCI    R18, 255
   \                     ??end_zamer_12:
   \   000000F0   4F3F               SBCI    R19, 255
   \                     ??end_zamer_13:
   \   000000F2   01FC               MOVW    R31:R30, R25:R24
   \   000000F4   8300               ST      Z, R16
   \   000000F6   8311               STD     Z+1, R17
   \   000000F8   8322               STD     Z+2, R18
   \   000000FA   8333               STD     Z+3, R19
    597                                                         lock_bit= lock_bit & ~(1<<m); 
   \   000000FC   ....               RCALL   ?Subroutine59
   \                     ??CrossCallReturnLabel_237:
   \   000000FE   2D4C               MOV     R20, R12
   \   00000100   ....               RCALL   ?Subroutine83
   \                     ??CrossCallReturnLabel_134:
   \   00000102   ....               RCALL   ??Subroutine84_0
   \                     ??CrossCallReturnLabel_140:
   \   00000104   8D22               LDD     R18, Z+26
   \   00000106   8D33               LDD     R19, Z+27
   \   00000108   2320               AND     R18, R16
   \   0000010A   2331               AND     R19, R17
   \   0000010C   8F22               STD     Z+26, R18
   \   0000010E   8F33               STD     Z+27, R19
    598                                                                                    
    599                                               
    600                                                                break;
   \   00000110   CF9D               RJMP    ??CrossCallReturnLabel_130
    601                                                                }               
    602                                                           
    603                                                           
    604                                                           
    605                                                           
    606                                                           
    607                                                              
    608                                                          default:
    609                                                                       {
    610                                                         
    611                                                         timer_tii[m]=unix+( (long int)c2_byte.mb[0+2*m]+(long int)(c2_byte.mb[1+2*m] & 7)*256)*60; 
   \                     ??end_zamer_14:
   \   00000112   ....               LDI     R30, LOW(unix)
   \   00000114   ....               LDI     R31, (unix) >> 8
   \   00000116   8080               LD      R8, Z
   \   00000118   8091               LDD     R9, Z+1
   \   0000011A   80A2               LDD     R10, Z+2
   \   0000011C   80B3               LDD     R11, Z+3
   \   0000011E   01F2               MOVW    R31:R30, R5:R4
   \   00000120   ....               RCALL   ?Subroutine4
   \                     ??CrossCallReturnLabel_279:
   \   00000122   0D08               ADD     R16, R8
   \   00000124   1D19               ADC     R17, R9
   \   00000126   1D2A               ADC     R18, R10
   \   00000128   1D3B               ADC     R19, R11
   \   0000012A   CFE3               RJMP    ??end_zamer_13
    612                                                         lock_bit= lock_bit & ~(1<<m);
    613                                                         
    614                                                                        break;
    615                                                                        }
    616                                                        }     // sw
    617                                                        
    618                                                    
    619                                       /////////////////////
    620                                          
    621              }                     

   \                                 In segment FARCODE, align 2, keep-with-next
   \                     ?Subroutine81:
   \   00000000   8370               ST      Z, R23
   \   00000002   8371               STD     Z+1, R23
   \   00000004   8372               STD     Z+2, R23
   \   00000006   8373               STD     Z+3, R23
   \   00000008   9508               RET

   \                                 In segment FARCODE, align 2, keep-with-next
   \                     ?Subroutine64:
   \   00000000   9F01               MUL     R16, R17
   \   00000002   2D00               MOV     R16, R0
   \   00000004   2D47               MOV     R20, R7
   \   00000006                      REQUIRE ?Subroutine122
   \   00000006                      ;               // Fall through to label ?Subroutine122

   \                                 In segment FARCODE, align 2, keep-with-next
   \                     ?Subroutine122:
   \   00000000   2D14               MOV     R17, R4
   \   00000002   ....               RJMP    set_end_time

   \                                 In segment FARCODE, align 2, keep-with-next
   \                     ?Subroutine56:
   \   00000000   01FD               MOVW    R31:R30, R27:R26
   \   00000002   8146               LDD     R20, Z+6
   \   00000004   8135               LDD     R19, Z+5
   \   00000006   8124               LDD     R18, Z+4
   \   00000008   8112               LDD     R17, Z+2
   \   0000000A   9508               RET

   \                                 In segment FARCODE, align 2, keep-with-next
   \                     ?Subroutine55:
   \   00000000   01FD               MOVW    R31:R30, R27:R26
   \   00000002   8076               LDD     R7, Z+6
   \   00000004   8135               LDD     R19, Z+5
   \   00000006   8124               LDD     R18, Z+4
   \   00000008   8042               LDD     R4, Z+2
   \   0000000A   8101               LDD     R16, Z+1
   \   0000000C   9508               RET

   \                                 In segment FARCODE, align 2, keep-with-next
   \                     ?Subroutine82:
   \   00000000   A110               LDD     R17, Z+32
   \   00000002   A102               LDD     R16, Z+34
   \   00000004   ....               RCALL   set_end_time
   \   00000006   01A8               MOVW    R21:R20, R17:R16
   \   00000008   01B9               MOVW    R23:R22, R19:R18
   \   0000000A   9508               RET

   \                                 In segment FARCODE, align 2, keep-with-next
   \                     ?Subroutine80:
   \   00000000   E04A               LDI     R20, 10
   \                     ??Subroutine80_0:
   \   00000002   ........           JMP     ?UC_DIVMOD_L01

   \                                 In segment FARCODE, align 2, keep-with-next
   \                     ?Subroutine79:
   \   00000000   E046               LDI     R20, 6
   \   00000002   ........           CALL    ?UC_DIVMOD_L01
   \   00000006   E016               LDI     R17, 6
   \   00000008   9F01               MUL     R16, R17
   \   0000000A   2D10               MOV     R17, R0
   \   0000000C   9508               RET

   \                                 In segment FARCODE, align 2, keep-with-next
   \                     ?Subroutine12:
   \   00000000   E000               LDI     R16, 0
   \   00000002   ....               RCALL   set_end_time
   \   00000004   5A00               SUBI    R16, 160
   \   00000006   4A1B               SBCI    R17, 171
   \   00000008   9508               RET

   \                                 In segment FARCODE, align 2, keep-with-next
   \                     ?Subroutine11:
   \   00000000   E000               LDI     R16, 0
   \   00000002   ....               RCALL   set_end_time
   \   00000004   5C00               SUBI    R16, 192
   \   00000006   4C17               SBCI    R17, 199
   \   00000008   9508               RET

   \                                 In segment FARCODE, align 2, keep-with-next
   \                     ?Subroutine10:
   \   00000000   E000               LDI     R16, 0
   \   00000002   ....               RCALL   set_end_time
   \   00000004   5E00               SUBI    R16, 224
   \   00000006   4E13               SBCI    R17, 227
   \   00000008   9508               RET

   \                                 In segment FARCODE, align 2, keep-with-next
   \                     ?Subroutine9:
   \   00000000   E000               LDI     R16, 0
   \   00000002   ....               RCALL   set_end_time
   \   00000004   5F00               SUBI    R16, 240
   \   00000006   4F11               SBCI    R17, 241
   \   00000008   9508               RET

   \                                 In segment FARCODE, align 2, keep-with-next
   \                     ?Subroutine4:
   \   00000000   8100               LD      R16, Z
   \   00000002   E010               LDI     R17, 0
   \   00000004   E020               LDI     R18, 0
   \   00000006   E030               LDI     R19, 0
   \   00000008   8141               LDD     R20, Z+1
   \   0000000A   E060               LDI     R22, 0
   \   0000000C   7047               ANDI    R20, 0x07
   \   0000000E   E070               LDI     R23, 0
   \   00000010   2F54               MOV     R21, R20
   \   00000012   2F40               MOV     R20, R16
   \   00000014   E30C               LDI     R16, 60
   \   00000016                      REQUIRE ?Subroutine123
   \   00000016                      ;               // Fall through to label ?Subroutine123

   \                                 In segment FARCODE, align 2, keep-with-next
   \                     ?Subroutine123:
   \   00000000   ........           JMP     ?L_EC_MUL_L03

   \                                 In segment FARCODE, align 2, keep-with-next
   \                     ?Subroutine1:
   \   00000000   A104               LDD     R16, Z+36
   \   00000002   E010               LDI     R17, 0
   \   00000004   E020               LDI     R18, 0
   \   00000006   E030               LDI     R19, 0
   \   00000008   0F04               ADD     R16, R20
   \   0000000A   1F15               ADC     R17, R21
   \   0000000C   1F26               ADC     R18, R22
   \   0000000E   1F37               ADC     R19, R23
   \   00000010   ....               LDI     R30, LOW(unix)
   \   00000012   ....               LDI     R31, (unix) >> 8
   \   00000014   8140               LD      R20, Z
   \   00000016   8151               LDD     R21, Z+1
   \   00000018   8162               LDD     R22, Z+2
   \   0000001A   8173               LDD     R23, Z+3
   \   0000001C   1740               CP      R20, R16
   \   0000001E   0751               CPC     R21, R17
   \   00000020   0762               CPC     R22, R18
   \   00000022   0773               CPC     R23, R19
   \   00000024   9508               RET

   \                                 In segment FARCODE, align 2, keep-with-next
   \                     ?Subroutine83:
   \   00000000   ........           CALL    ?S_SHL_L02
   \   00000004   9500               COM     R16
   \   00000006   9510               COM     R17
   \   00000008   9508               RET

   \                                 In segment FARCODE, align 2, keep-with-next
   \                     ?Subroutine59:
   \   00000000   E001               LDI     R16, 1
   \   00000002                      REQUIRE ?Subroutine112
   \   00000002                      ;               // Fall through to label ?Subroutine112

   \                                 In segment FARCODE, align 2, keep-with-next
   \                     ?Subroutine112:
   \   00000000   E010               LDI     R17, 0
   \   00000002   9508               RET

   \                                 In segment FARCODE, align 2, keep-with-next
   \                     ?Subroutine84:
   \   00000000   938A               ST      -Y, R24
   \                     ??Subroutine84_0:
   \   00000002   ....               LDI     R30, LOW(timer_psm)
   \   00000004   ....               LDI     R31, (timer_psm) >> 8
   \   00000006   9508               RET
    622           
    623          
    624          
    625          // замеры по ТИТ
    626          //

   \                                 In segment FARCODE, align 2, keep-with-next
    627          void  end_zamer_tit(char m)
   \                     end_zamer_tit:
    628          {
   \   00000000   ........           CALL    ?PROLOGUE12_L09
   \   00000004                      REQUIRE ?Register_R4_is_cg_reg
   \   00000004                      REQUIRE ?Register_R5_is_cg_reg
   \   00000004                      REQUIRE ?Register_R6_is_cg_reg
   \   00000004                      REQUIRE ?Register_R7_is_cg_reg
   \   00000004                      REQUIRE ?Register_R8_is_cg_reg
   \   00000004                      REQUIRE ?Register_R9_is_cg_reg
   \   00000004                      REQUIRE ?Register_R10_is_cg_reg
   \   00000004                      REQUIRE ?Register_R11_is_cg_reg
   \   00000004   2EA0               MOV     R10, R16
    629          unsigned long int u_i;
    630          unsigned int zamer;    
    631          if ( m>=2 ) return;                                 
   \   00000006   E002               LDI     R16, 2
   \   00000008   16A0               CP      R10, R16
   \   0000000A   F4E0               BRCC    ??end_zamer_tit_0
    632                                        ////////////////////
    633                                                   
    634                                                      zamer=c2_byte.mb[0x40+(2*m)]+(c2_byte.mb[0x41+(2*m)] & 7)*256;
   \   0000000C   2D4A               MOV     R20, R10
   \   0000000E   E050               LDI     R21, 0
   \   00000010   ....               LDI     R24, LOW(c2_byte)
   \   00000012   ....               LDI     R25, (c2_byte) >> 8
   \   00000014   018A               MOVW    R17:R16, R21:R20
   \   00000016   ....               RCALL   ??Subroutine54_0
   \                     ??CrossCallReturnLabel_77:
   \   00000018   014C               MOVW    R9:R8, R25:R24
   \   0000001A   0E80               ADD     R8, R16
   \   0000001C   1E91               ADC     R9, R17
   \   0000001E   E400               LDI     R16, 64
   \   00000020   0E80               ADD     R8, R16
   \   00000022   1E95               ADC     R9, R21
   \   00000024   01F4               MOVW    R31:R30, R9:R8
   \   00000026   ....               RCALL   ?Subroutine65
    635                                                      if ( zamer> 1440) {timer_tit[m]=0;return;}
   \                     ??CrossCallReturnLabel_94:
   \   00000028   ....               LDI     R26, LOW(timer_psm)
   \   0000002A   ....               LDI     R27, (timer_psm) >> 8
   \   0000002C   ....               RCALL   ?Subroutine86
   \                     ??CrossCallReturnLabel_147:
   \   0000002E   0FA4               ADD     R26, R20
   \   00000030   1FB5               ADC     R27, R21
   \   00000032   3A21               CPI     R18, 161
   \   00000034   E025               LDI     R18, 5
   \   00000036   0712               CPC     R17, R18
   \   00000038   F040               BRCS    ??end_zamer_tit_1
   \                     ??end_zamer_tit_2:
   \   0000003A   ....               RCALL   ?Subroutine13
   \                     ??CrossCallReturnLabel_246:
   \   0000003C   8700               STD     Z+8, R16
   \   0000003E   8701               STD     Z+9, R16
   \   00000040   8702               STD     Z+10, R16
   \   00000042   8703               STD     Z+11, R16
   \                     ??end_zamer_tit_0:
   \   00000044   E0EC               LDI     R30, 12
   \   00000046   ........           JMP     ?EPILOGUE_B12_L09
    636                                                   switch(zamer)
   \                     ??end_zamer_tit_1:
   \   0000004A   ....               LDI     R30, LOW(real_time)
   \   0000004C   ....               LDI     R31, (real_time) >> 8
   \   0000004E   8071               LDD     R7, Z+1
   \   00000050   8042               LDD     R4, Z+2
   \   00000052   8054               LDD     R5, Z+4
   \   00000054   8065               LDD     R6, Z+5
   \   00000056   80B6               LDD     R11, Z+6
   \   00000058   ....               LDI     R30, LOW(`?<Jumptable for end_zamer_tit>_0`)
   \   0000005A   ....               LDI     R31, (`?<Jumptable for end_zamer_tit>_0`) >> 16
   \   0000005C   BFFB               OUT     0x3B, R31
   \   0000005E   ....               LDI     R31, HIGH(`?<Jumptable for end_zamer_tit>_0`)
   \   00000060   ........           JMP     ?SV_SWITCH_L06
    637                                                        {
    638                                                        
    639                                                        
    640                                                        case 5: 
    641                                                           {  
    642                                                         
    643                            timer_tit[m]=set_end_time((real_time.r_min/5)*5,
    644                                                       real_time.r_hor,
    645                                                       real_time.r_date,
    646                                                       real_time.r_month,
    647                                                       real_time.r_year)+300; 
   \                     ??end_zamer_tit_3:
   \   00000064   ....               RCALL   ?Subroutine87
   \                     ??CrossCallReturnLabel_149:
   \   00000066   E045               LDI     R20, 5
   \   00000068   ....               RCALL   ??Subroutine80_0
   \                     ??CrossCallReturnLabel_126:
   \   0000006A   E015               LDI     R17, 5
   \   0000006C   ....               RCALL   ?Subroutine63
   \                     ??CrossCallReturnLabel_275:
   \   0000006E   5D04               SUBI    R16, 212
   \   00000070   4F1E               SBCI    R17, 254
   \   00000072   C038               RJMP    ??end_zamer_tit_4
    648                                                       
    649                                                       lock_bit_tit= lock_bit_tit & ~(1<<m);
    650                                                          
    651                                                           break;
    652                                                           }               
    653                                                           
    654                                                           case 10: 
    655                                                           {  
    656                                                         
    657                            timer_tit[m]=set_end_time((real_time.r_min/10)*10,
    658                                                       real_time.r_hor,
    659                                                       real_time.r_date,
    660                                                       real_time.r_month,
    661                                                       real_time.r_year)+600; 
   \                     ??end_zamer_tit_5:
   \   00000074   ....               RCALL   ?Subroutine87
   \                     ??CrossCallReturnLabel_150:
   \   00000076   ....               RCALL   ?Subroutine80
   \                     ??CrossCallReturnLabel_127:
   \   00000078   E01A               LDI     R17, 10
   \   0000007A   ....               RCALL   ?Subroutine63
   \                     ??CrossCallReturnLabel_274:
   \   0000007C   5A08               SUBI    R16, 168
   \   0000007E   4F1D               SBCI    R17, 253
   \   00000080   C031               RJMP    ??end_zamer_tit_4
    662                                                       
    663                                                       lock_bit_tit= lock_bit_tit & ~(1<<m);
    664                                                          
    665                                                           break;
    666                                                           } 
    667                                                          
    668                                                           
    669                                                            case 20: 
    670                                                           { 
    671                            timer_tit[m]=set_end_time((real_time.r_min/20)*20,
    672                                                       real_time.r_hor,
    673                                                       real_time.r_date,
    674                                                       real_time.r_month,
    675                                                       real_time.r_year)+1200; 
   \                     ??end_zamer_tit_6:
   \   00000082   ....               RCALL   ?Subroutine87
   \                     ??CrossCallReturnLabel_151:
   \   00000084   E144               LDI     R20, 20
   \   00000086   ....               RCALL   ??Subroutine80_0
   \                     ??CrossCallReturnLabel_128:
   \   00000088   E114               LDI     R17, 20
   \   0000008A   ....               RCALL   ?Subroutine63
   \                     ??CrossCallReturnLabel_273:
   \   0000008C   5500               SUBI    R16, 80
   \   0000008E   4F1B               SBCI    R17, 251
   \   00000090   C029               RJMP    ??end_zamer_tit_4
    676                                                       
    677                                                         lock_bit_tit= lock_bit_tit & ~(1<<m);
    678                                                        
    679                                                           break;
    680                                                           }  
    681                                                            case 30: 
    682                                                           {
    683                              timer_tit[m]=set_end_time((real_time.r_min/30)*30,
    684                                                       real_time.r_hor,
    685                                                       real_time.r_date,
    686                                                       real_time.r_month,
    687                                                       real_time.r_year)+1800;                                
   \                     ??end_zamer_tit_7:
   \   00000092   ....               RCALL   ?Subroutine87
   \                     ??CrossCallReturnLabel_152:
   \   00000094   E14E               LDI     R20, 30
   \   00000096   ....               RCALL   ??Subroutine80_0
   \                     ??CrossCallReturnLabel_129:
   \   00000098   E11E               LDI     R17, 30
   \   0000009A   ....               RCALL   ?Subroutine63
   \                     ??CrossCallReturnLabel_272:
   \   0000009C   5F08               SUBI    R16, 248
   \   0000009E   4F18               SBCI    R17, 248
   \   000000A0   C021               RJMP    ??end_zamer_tit_4
    688                                                             
    689                                                         lock_bit_tit= lock_bit_tit & ~(1<<m);
    690                                                          
    691                                                           break;
    692                                                           }
    693                                                           
    694                                                           case 60: 
    695                                                           {
    696                            timer_tit[m]=set_end_time(0,
    697                                                       real_time.r_hor,
    698                                                       real_time.r_date,
    699                                                       real_time.r_month,
    700                                                       real_time.r_year)+3600;                                  
   \                     ??end_zamer_tit_8:
   \   000000A2   ....               RCALL   ?Subroutine88
   \                     ??CrossCallReturnLabel_153:
   \   000000A4   2D14               MOV     R17, R4
   \   000000A6   ....               RCALL   ?Subroutine9
   \                     ??CrossCallReturnLabel_9:
   \   000000A8   C01D               RJMP    ??end_zamer_tit_4
    701                                                             
    702                                                         lock_bit_tit= lock_bit_tit & ~(1<<m);
    703                                                          
    704                                                           break;
    705                                                           }
    706                                                         
    707                                                           case 120: 
    708                                                           { 
    709                           timer_tit[m]=set_end_time(0,
    710                                                       (real_time.r_hor/2)*2,
    711                                                       real_time.r_date,
    712                                                       real_time.r_month,
    713                                                       real_time.r_year)+7200;                                   
   \                     ??end_zamer_tit_9:
   \   000000AA   ....               RCALL   ?Subroutine88
   \                     ??CrossCallReturnLabel_154:
   \   000000AC   EF0E               LDI     R16, 254
   \   000000AE   2240               AND     R4, R16
   \   000000B0   2D14               MOV     R17, R4
   \   000000B2   ....               RCALL   ?Subroutine10
   \                     ??CrossCallReturnLabel_11:
   \   000000B4   C017               RJMP    ??end_zamer_tit_4
    714                                                         
    715                                                         lock_bit_tit= lock_bit_tit & ~(1<<m);
    716                                                          
    717                                                           break;
    718                                                           } 
    719                                                         
    720                                                           case 240: 
    721                                                           { 
    722                           timer_tit[m]=set_end_time(0,
    723                                                       (real_time.r_hor/4)*4,
    724                                                       real_time.r_date,
    725                                                       real_time.r_month,
    726                                                       real_time.r_year)+14400;                                   
   \                     ??end_zamer_tit_10:
   \   000000B6   ....               RCALL   ?Subroutine88
   \                     ??CrossCallReturnLabel_155:
   \   000000B8   EF0C               LDI     R16, 252
   \   000000BA   2240               AND     R4, R16
   \   000000BC   2D14               MOV     R17, R4
   \   000000BE   ....               RCALL   ?Subroutine11
   \                     ??CrossCallReturnLabel_13:
   \   000000C0   C011               RJMP    ??end_zamer_tit_4
    727                                                        
    728                                                         lock_bit_tit= lock_bit_tit & ~(1<<m);
    729                                                         
    730                                                           break;
    731                                                           }
    732                                                           
    733                                                           case 360: 
    734                                                           {
    735                     timer_tit[m]=set_end_time(0,
    736                                                       (real_time.r_hor/6)*6,
    737                                                       real_time.r_date,
    738                                                       real_time.r_month,
    739                                                       real_time.r_year)+21600;                                   
   \                     ??end_zamer_tit_11:
   \   000000C2   2D36               MOV     R19, R6
   \   000000C4   2D25               MOV     R18, R5
   \   000000C6   2D04               MOV     R16, R4
   \   000000C8   ....               RCALL   ?Subroutine79
   \                     ??CrossCallReturnLabel_122:
   \   000000CA   2D4B               MOV     R20, R11
   \   000000CC   ....               RCALL   ?Subroutine12
   \                     ??CrossCallReturnLabel_15:
   \   000000CE   C00A               RJMP    ??end_zamer_tit_4
    740                                                        
    741                                                         lock_bit_tit= lock_bit_tit & ~(1<<m);
    742                                                        
    743                                                           break;
    744                                                           }    
    745                                                           case 0: {timer_tit[m]=0;break;}
    746                                                           
    747                                                           
    748                                             case 1440:
    749                                                                {  
    750                                               u_i=set_end_time(c2_byte.mb[34],
    751                                                       c2_byte.mb[32],
    752                                                       real_time.r_date,
    753                                                       real_time.r_month,
    754                                                       real_time.r_year)+(unsigned long int)c2_byte.mb[36];                                   
   \                     ??end_zamer_tit_12:
   \   000000D0   ....               RCALL   ?Subroutine88
   \                     ??CrossCallReturnLabel_156:
   \   000000D2   01FC               MOVW    R31:R30, R25:R24
   \   000000D4   ....               RCALL   ?Subroutine82
   \                     ??CrossCallReturnLabel_133:
   \   000000D6   01FC               MOVW    R31:R30, R25:R24
   \   000000D8   ....               RCALL   ?Subroutine1
    755                                                if (u_i <= unix ) timer_tit[m]=u_i+86400;  // если время окончания замера меньше текущего
   \                     ??CrossCallReturnLabel_1:
   \   000000DA   F010               BRCS    ??end_zamer_tit_13
   \   000000DC   ....               RCALL   ?Subroutine60
   \                     ??CrossCallReturnLabel_88:
   \   000000DE   C003               RJMP    ??end_zamer_tit_14
    756                                                else  timer_tit[m]=u_i+5;   
   \                     ??end_zamer_tit_13:
   \   000000E0   5F0B               SUBI    R16, 251
   \   000000E2   4F1F               SBCI    R17, 255
   \                     ??end_zamer_tit_4:
   \   000000E4   4F2F               SBCI    R18, 255
   \                     ??end_zamer_tit_14:
   \   000000E6   4F3F               SBCI    R19, 255
   \                     ??end_zamer_tit_15:
   \   000000E8   01FD               MOVW    R31:R30, R27:R26
   \   000000EA   ....               RCALL   ?Subroutine62
    757                                                
    758                                               
    759                                                
    760                                                    
    761                                                         lock_bit_tit= lock_bit_tit & ~(1<<m); 
   \                     ??CrossCallReturnLabel_92:
   \   000000EC   ....               RCALL   ?Subroutine59
   \                     ??CrossCallReturnLabel_238:
   \   000000EE   2D4A               MOV     R20, R10
   \   000000F0   ....               RCALL   ?Subroutine85
   \                     ??CrossCallReturnLabel_144:
   \   000000F2   9500               COM     R16
   \   000000F4   ....               RCALL   ??Subroutine84_0
   \                     ??CrossCallReturnLabel_141:
   \   000000F6   A113               LDD     R17, Z+35
   \   000000F8   2310               AND     R17, R16
   \   000000FA   A313               STD     Z+35, R17
    762                                                                                    
    763                                               
    764                                                                break;
   \   000000FC   CFA3               RJMP    ??end_zamer_tit_0
    765                                                                }               
    766                                                           
    767                                                           
    768                                                           
    769                                                           
    770                                                           
    771                                                              
    772                                                          default:
    773                                                                       {
    774                                                         
    775                                                         timer_tit[m]=unix+( (long int)c2_byte.mb[0x40+ (2*m)]+(long int)(c2_byte.mb[0x41+ (2*m)] & 7)*256)*60; 
   \                     ??end_zamer_tit_16:
   \   000000FE   ........           CALL    ?Subroutine24
   \                     ??CrossCallReturnLabel_31:
   \   00000102   01F4               MOVW    R31:R30, R9:R8
   \   00000104   ....               RCALL   ?Subroutine4
   \                     ??CrossCallReturnLabel_280:
   \   00000106   0D04               ADD     R16, R4
   \   00000108   1D15               ADC     R17, R5
   \   0000010A   1D26               ADC     R18, R6
   \   0000010C   1D37               ADC     R19, R7
   \   0000010E   CFEC               RJMP    ??end_zamer_tit_15
    776                                                         lock_bit_tit= lock_bit_tit & ~(1<<m);
    777                                                         
    778                                                                        break;
    779                                                                        }
    780                                                        }     // sw
    781                                                        
    782                                                    
    783                                       /////////////////////
    784                                          
    785              }                     

   \                                 In segment FARCODE, align 2, keep-with-next
   \                     ?Subroutine88:
   \   00000000   2D4B               MOV     R20, R11
   \   00000002   2D36               MOV     R19, R6
   \   00000004   2D25               MOV     R18, R5
   \   00000006   9508               RET

   \                                 In segment FARCODE, align 2, keep-with-next
   \                     ?Subroutine87:
   \   00000000   2D36               MOV     R19, R6
   \   00000002   2D25               MOV     R18, R5
   \   00000004   2D07               MOV     R16, R7
   \   00000006   9508               RET

   \                                 In segment FARCODE, align 2, keep-with-next
   \                     ?Subroutine63:
   \   00000000   9F01               MUL     R16, R17
   \   00000002   2D00               MOV     R16, R0
   \   00000004   2D4B               MOV     R20, R11
   \   00000006   ....               RJMP    ?Subroutine122

   \                                 In segment FARCODE, align 2, keep-with-next
   \                     ?Subroutine86:
   \   00000000   0F44               LSL     R20
   \   00000002   1F55               ROL     R21
   \   00000004   0F44               LSL     R20
   \   00000006   1F55               ROL     R21
   \   00000008   9508               RET

   \                                 In segment FARCODE, align 2, keep-with-next
   \                     ?Subroutine85:
   \   00000000   ........           JMP     ?S_SHL_L02

   \                                 In segment FARCODE, align 2, keep-with-next
   \                     ?Subroutine24:
   \   00000000   ....               LDI     R30, LOW(unix)
   \   00000002   ....               LDI     R31, (unix) >> 8
   \   00000004   8040               LD      R4, Z
   \   00000006   8051               LDD     R5, Z+1
   \   00000008   8062               LDD     R6, Z+2
   \   0000000A   8073               LDD     R7, Z+3
   \   0000000C   9508               RET
    786          
    787          
    788              
    789          ////////////////////// 

   \                                 In segment FARCODE, align 2, keep-with-next
    790          unsigned long int set_end_time(char mi,char ch,char da,char ma,char ye)
   \                     set_end_time:
    791          { unsigned long int sek_32;
   \   00000000   ........           CALL    ?PROLOGUE9_L09
   \   00000004                      REQUIRE ?Register_R4_is_cg_reg
   \   00000004                      REQUIRE ?Register_R6_is_cg_reg
   \   00000004                      REQUIRE ?Register_R8_is_cg_reg
   \   00000004   2E60               MOV     R6, R16
   \   00000006   2E41               MOV     R4, R17
   \   00000008   2E82               MOV     R8, R18
   \   0000000A   2F83               MOV     R24, R19
   \   0000000C   2FA4               MOV     R26, R20
    792            struct
    793                  { // в двоичном коде
    794                    char r_sec;
    795                    char r_min;
    796                    char r_hor;
    797                    char r_day;
    798                    char r_date;
    799                    char r_month;
    800                    char r_year;
    801                    char r_control;
    802                  }  real_time;   
    803                   
    804                  real_time.r_sec=0;
    805                  real_time.r_min=mi;
    806                  real_time.r_hor=ch;
    807                  real_time.r_date=da;
    808                  real_time.r_month=ma;
    809                  real_time.r_year=ye; 
    810            
    811             sek_32 = ( ( (unsigned long int)real_time.r_year * 365 ) + (real_time.r_year>>2) );
   \   0000000E   ....               RCALL   ?Subroutine5
    812             
    813               switch ( real_time.r_month )
   \                     ??CrossCallReturnLabel_209:
   \   00000010   2D08               MOV     R16, R8
   \   00000012   ....               RCALL   ?Subroutine37
   \                     ??CrossCallReturnLabel_42:
   \   00000014   F0B9               BREQ    ??set_end_time_0
   \   00000016   95EA               DEC     R30
   \   00000018   F0C1               BREQ    ??set_end_time_1
   \   0000001A   95EA               DEC     R30
   \   0000001C   F0C1               BREQ    ??set_end_time_2
   \   0000001E   95EA               DEC     R30
   \   00000020   F0C1               BREQ    ??set_end_time_3
   \   00000022   95EA               DEC     R30
   \   00000024   F0C1               BREQ    ??set_end_time_4
   \   00000026   95EA               DEC     R30
   \   00000028   F0C1               BREQ    ??set_end_time_5
   \   0000002A   95EA               DEC     R30
   \   0000002C   F0C1               BREQ    ??set_end_time_6
   \   0000002E   95EA               DEC     R30
   \   00000030   F0C1               BREQ    ??set_end_time_7
   \   00000032   95EA               DEC     R30
   \   00000034   F0C1               BREQ    ??set_end_time_8
   \   00000036   95EA               DEC     R30
   \   00000038   F0C1               BREQ    ??set_end_time_9
   \   0000003A   95EA               DEC     R30
   \   0000003C   F0C1               BREQ    ??set_end_time_10
    814                   {
    815                    case 1: sek_32 = (sek_32 + real_time.r_date); break;
   \   0000003E   0D48               ADD     R20, R8
   \   00000040   1F53               ADC     R21, R19
   \   00000042   C019               RJMP    ??set_end_time_11
    816                    case 2: sek_32 = (sek_32 + real_time.r_date + 31); break;
   \                     ??set_end_time_0:
   \   00000044   5E01               SUBI    R16, 225
   \                     ??set_end_time_12:
   \   00000046   4F1F               SBCI    R17, 255
   \   00000048   C014               RJMP    ??set_end_time_13
    817                    case 3: sek_32 = (sek_32 + real_time.r_date + 59); break;
   \                     ??set_end_time_1:
   \   0000004A   5C05               SUBI    R16, 197
   \   0000004C   CFFC               RJMP    ??set_end_time_12
    818                    case 4: sek_32 = (sek_32 + real_time.r_date + 90); break;
   \                     ??set_end_time_2:
   \   0000004E   5A06               SUBI    R16, 166
   \   00000050   CFFA               RJMP    ??set_end_time_12
    819                    case 5: sek_32 = (sek_32 + real_time.r_date + 120); break;
   \                     ??set_end_time_3:
   \   00000052   5808               SUBI    R16, 136
   \   00000054   CFF8               RJMP    ??set_end_time_12
    820                    case 6: sek_32 = (sek_32 + real_time.r_date + 151); break;
   \                     ??set_end_time_4:
   \   00000056   5609               SUBI    R16, 105
   \   00000058   CFF6               RJMP    ??set_end_time_12
    821                    case 7: sek_32 = (sek_32 + real_time.r_date + 181); break;
   \                     ??set_end_time_5:
   \   0000005A   540B               SUBI    R16, 75
   \   0000005C   CFF4               RJMP    ??set_end_time_12
    822                    case 8: sek_32 = (sek_32 + real_time.r_date + 212); break;
   \                     ??set_end_time_6:
   \   0000005E   520C               SUBI    R16, 44
   \   00000060   CFF2               RJMP    ??set_end_time_12
    823                    case 9: sek_32 = (sek_32 + real_time.r_date + 243); break;
   \                     ??set_end_time_7:
   \   00000062   500D               SUBI    R16, 13
   \   00000064   CFF0               RJMP    ??set_end_time_12
    824                    case 10: sek_32 = (sek_32 + real_time.r_date + 273); break;
   \                     ??set_end_time_8:
   \   00000066   5E0F               SUBI    R16, 239
   \   00000068   C003               RJMP    ??set_end_time_14
    825                    case 11: sek_32 = (sek_32 + real_time.r_date + 304); break;
   \                     ??set_end_time_9:
   \   0000006A   5D00               SUBI    R16, 208
   \   0000006C   C001               RJMP    ??set_end_time_14
    826                    case 12: sek_32 = (sek_32 + real_time.r_date + 334); break;
   \                     ??set_end_time_10:
   \   0000006E   5B02               SUBI    R16, 178
   \                     ??set_end_time_14:
   \   00000070   4F1E               SBCI    R17, 254
   \                     ??set_end_time_13:
   \   00000072   0F40               ADD     R20, R16
   \   00000074   1F51               ADC     R21, R17
   \                     ??set_end_time_11:
   \   00000076   1F63               ADC     R22, R19
   \   00000078   1F73               ADC     R23, R19
    827                    default:
    828                    sek_32 = (sek_32 + real_time.r_date);
    829                   }
    830              if ( (real_time.r_year & 0x03) == 0 )
   \   0000007A   70A3               ANDI    R26, 0x03
   \   0000007C   F419               BRNE    ??CrossCallReturnLabel_111
    831                   {
    832                    if (real_time.r_month < 3) sek_32--;
   \   0000007E   3083               CPI     R24, 3
   \   00000080   F408               BRCC    ??CrossCallReturnLabel_111
   \   00000082   ....               RCALL   ?Subroutine71
    833                   }
    834            sek_32 = ((sek_32 * 86400)+((unsigned long int)real_time.r_hor * 3600)+((unsigned long int)real_time.r_min * 60)+real_time.r_sec );
    835            sek_32=sek_32+2;   // чтобы избежать 00 часов
    836             return sek_32;
   \                     ??CrossCallReturnLabel_111:
   \   00000084   ....               RCALL   ?Subroutine78
   \                     ??CrossCallReturnLabel_234:
   \   00000086   2D44               MOV     R20, R4
   \   00000088   ....               RCALL   ?Subroutine6
   \                     ??CrossCallReturnLabel_232:
   \   0000008A   2D46               MOV     R20, R6
   \   0000008C   ....               RCALL   ?Subroutine7
   \                     ??CrossCallReturnLabel_5:
   \   0000008E   ....               RCALL   ?Subroutine76
   \                     ??CrossCallReturnLabel_117:
   \   00000090                      REQUIRE ?Subroutine124
   \   00000090                      ;               // Fall through to label ?Subroutine124
    837          } 

   \                                 In segment FARCODE, align 2, keep-with-next
   \                     ?Subroutine124:
   \   00000000   E0E9               LDI     R30, 9
   \   00000002   ........           JMP     ?EPILOGUE_B9_L09
    838          //////////////////////////////////
    839          
    840            

   \                                 In segment FARCODE, align 2, keep-with-next
    841          int crc_sum(unsigned char *ff,unsigned char kol)
   \                     crc_sum:
    842          {
    843            int sum_crc;
    844            char i;
    845            sum_crc=0;
   \   00000000   E040               LDI     R20, 0
   \   00000002   E050               LDI     R21, 0
    846                         
    847                         for (i=0;i<kol;i++)
   \   00000004   E030               LDI     R19, 0
   \   00000006   C007               RJMP    ??crc_sum_0
    848                                          {
    849                                          sum_crc+= *ff;                                
   \                     ??crc_sum_1:
   \   00000008   01F8               MOVW    R31:R30, R17:R16
   \   0000000A   9161               LD      R22, Z+
   \   0000000C   018F               MOVW    R17:R16, R31:R30
   \   0000000E   E070               LDI     R23, 0
   \   00000010   0F46               ADD     R20, R22
   \   00000012   1F57               ADC     R21, R23
    850                                          *ff++ ;
    851                                           }     
   \   00000014   9533               INC     R19
   \                     ??crc_sum_0:
   \   00000016   1732               CP      R19, R18
   \   00000018   F3B8               BRCS    ??crc_sum_1
    852            
    853            return(sum_crc);
   \   0000001A   018A               MOVW    R17:R16, R21:R20
   \   0000001C   9508               RET
    854          }
    855          
    856          
    857          
    858          //////////////////
    859          // прочитать сначала архивы на предмет действительности

   \                                 In segment FARCODE, align 2, keep-with-next
    860           unsigned long int read_arhiv_tii(char m)  // 
   \                     read_arhiv_tii:
    861           {
   \   00000000   ....               RCALL   ?Subroutine89
   \                     ??CrossCallReturnLabel_157:
   \   00000002   9762               SBIW    R29:R28, 18
    862           char index;
    863          
    864           unsigned int t_i; 
    865            union
    866             {     
    867             long int unix;
    868             char st[4]; 
    869             } tik;
    870             
    871          unsigned char zapis[14];
    872           
    873          index=0+m*2; 
   \   00000004   2F20               MOV     R18, R16
   \   00000006   0F22               LSL     R18
    874          t_i=  ( ( unsigned long int)c2_byte.mb[index] + ( unsigned long int)(c2_byte.mb[index+1] & 7)*256);
   \   00000008   ....               RCALL   ?Subroutine38
    875          if (t_i > 1440) return(0);
   \                     ??CrossCallReturnLabel_43:
   \   0000000A   3A41               CPI     R20, 161
   \   0000000C   E015               LDI     R17, 5
   \   0000000E   0731               CPC     R19, R17
   \   00000010   F028               BRCS    ??read_arhiv_tii_0
   \                     ??read_arhiv_tii_1:
   \   00000012   E000               LDI     R16, 0
   \   00000014   E010               LDI     R17, 0
   \   00000016   E020               LDI     R18, 0
   \   00000018   E030               LDI     R19, 0
   \   0000001A   C00F               RJMP    ??CrossCallReturnLabel_161
    876          if (t_i==0) return(0);
   \                     ??read_arhiv_tii_0:
   \   0000001C   2B23               OR      R18, R19
   \   0000001E   F3C9               BREQ    ??read_arhiv_tii_1
    877                                 
    878          
    879          
    880                                  
    881                                RdFromFleshToArr(STRUCT_TII+m*14,&zapis[0],14); 
   \   00000020   ....               RCALL   ?Subroutine31
    882                               
    883                               /*
    884                                //proverka
    885                               
    886                                __disable_interrupt(); 
    887                                UCSR2B=0; 
    888                                UBRR2H = R115200_H;
    889                                UBRR2L = R115200_L;     
    890                                UCSR2B=UCSR2B | TXEN;
    891                                s_port('r');
    892                                s_port('d');
    893                                s_port(' ');
    894                                s_port('f');
    895                                s_port('l');
    896                                s_port('a');
    897                                s_port('s');
    898                                s_port('h');
    899                                s_port(':');
    900                                s_port(zapis[0]);
    901                                s_port(zapis[1]);
    902                                s_port(zapis[2]);
    903                                s_port(zapis[3]);
    904                                s_port(zapis[4]);
    905                                s_port(zapis[5]);
    906                                s_port(zapis[6]);
    907                                s_port(zapis[7]);
    908                                s_port(zapis[8]);
    909                                s_port(zapis[9]);
    910                                s_port(zapis[10]);
    911                                s_port(zapis[11]);
    912                                s_port(zapis[12]);
    913                                s_port(zapis[13]);
    914                                */
    915                                
    916                                if((*(int*)&zapis[12])==crc_sum(&zapis[0],12)) 
   \                     ??CrossCallReturnLabel_37:
   \   00000022   F7B9               BRNE    ??read_arhiv_tii_1
    917                                                  {     
    918                                                     tik.st[0]=zapis[0];
   \   00000024   ....               RCALL   ?Subroutine27
    919                                                     tik.st[1]=zapis[1];
    920                                                     tik.st[2]=zapis[2];
    921                                                     tik.st[3]=zapis[3];
    922                                                     
    923                                                     /*
    924                                                     S3_RD;//proverka
    925                                                      s_port('r');
    926                                                      s_port('d');
    927                                                      s_port(' ');
    928                                                      s_port('t');
    929                                                      s_port('i');
    930                                                      s_port('k');
    931                                                      s_port(':');
    932                                                     
    933                                                     s_port(tik.st[0]);
    934                                                     s_port(tik.st[1]);
    935                                                     s_port(tik.st[2]);
    936                                                     s_port(tik.st[3]);
    937                                                     s_port('e');
    938                                                     s_port('n');
    939                                                     s_port('d');
    940                                                       */
    941                                                     
    942                                                     
    943                                                    if( tik.unix==timer_tii[m])
   \                     ??CrossCallReturnLabel_221:
   \   00000026   F7A9               BRNE    ??read_arhiv_tii_1
    944                                                                                {
    945                                                                                tik.st[0]=zapis[6];
   \   00000028   850A               LDD     R16, Y+10
   \   0000002A   8308               ST      Y, R16
    946                                                                                tik.st[1]=zapis[7];
   \   0000002C   850B               LDD     R16, Y+11
   \   0000002E   8309               STD     Y+1, R16
    947                                                                                tik.st[2]=zapis[8];
   \   00000030   850C               LDD     R16, Y+12
   \   00000032   830A               STD     Y+2, R16
    948                                                                                tik.st[3]=zapis[9];
   \   00000034   850D               LDD     R16, Y+13
   \   00000036   830B               STD     Y+3, R16
    949                                                                             //   err_cnt[m]=1;
    950                                                                              
    951                                                                                return(tik.unix);  // пишем в тот же архив
   \   00000038   ....               RCALL   ?Subroutine90
   \                     ??CrossCallReturnLabel_161:
   \   0000003A   9662               ADIW    R29:R28, 18
   \   0000003C   ....               RJMP    ?Subroutine125
    952                                                                                
    953                                                                                }
    954                                                    
    955                                                      
    956                                                     
    957                                                    else
    958                                                                    {
    959                                                                //    err_cnt[m]=2;                                         
    960                                                                    return(0);  // создаем новый архив 
    961                                                                    }
    962                                                    }
    963                                 else  
    964                                 
    965                                                                   {
    966                                                                //    err_cnt[m]=3;                                         
    967                                                                    return(0);  // архив неправильный 
    968                                                                    }      
    969                                                                 
    970          /////////////////////////////////
    971          }                  

   \                                 In segment FARCODE, align 2, keep-with-next
   \                     ?Subroutine38:
   \   00000000   ....               LDI     R30, LOW(c2_byte)
   \   00000002   ....               LDI     R31, (c2_byte) >> 8
   \   00000004   E030               LDI     R19, 0
   \   00000006   0FE2               ADD     R30, R18
   \   00000008   1FF3               ADC     R31, R19
   \   0000000A   8140               LD      R20, Z
   \   0000000C   8121               LDD     R18, Z+1
   \   0000000E   7027               ANDI    R18, 0x07
   \   00000010   2F32               MOV     R19, R18
   \   00000012   2F24               MOV     R18, R20
   \   00000014   9508               RET

   \                                 In segment FARCODE, align 2, keep-with-next
   \                     ?Subroutine90:
   \   00000000   8108               LD      R16, Y
   \   00000002   8119               LDD     R17, Y+1
   \   00000004   812A               LDD     R18, Y+2
   \   00000006   813B               LDD     R19, Y+3
   \   00000008   9508               RET

   \                                 In segment FARCODE, align 2, keep-with-next
   \                     ?Subroutine31:
   \   00000000   2FA0               MOV     R26, R16
   \   00000002   E0B0               LDI     R27, 0
   \   00000004   019E               MOVW    R19:R18, R29:R28
   \   00000006   5F2C               SUBI    R18, 252
   \   00000008   4F3F               SBCI    R19, 255
   \   0000000A   01AD               MOVW    R21:R20, R27:R26
   \   0000000C   E00E               LDI     R16, 14
   \   0000000E   E010               LDI     R17, 0
   \   00000010   ........           CALL    ?S_EC_MUL_L02
   \   00000014   5910               SUBI    R17, 144
   \   00000016   E04E               LDI     R20, 14
   \   00000018   ........           CALL    RdFromFleshToArr
   \   0000001C   8988               LDD     R24, Y+16
   \   0000001E   8999               LDD     R25, Y+17
   \   00000020   E02C               LDI     R18, 12
   \   00000022   018E               MOVW    R17:R16, R29:R28
   \   00000024   5F0C               SUBI    R16, 252
   \   00000026   4F1F               SBCI    R17, 255
   \   00000028   ....               RCALL   crc_sum
   \   0000002A   1780               CP      R24, R16
   \   0000002C   0791               CPC     R25, R17
   \   0000002E   9508               RET

   \                                 In segment FARCODE, align 2, keep-with-next
   \                     ?Subroutine27:
   \   00000000   810C               LDD     R16, Y+4
   \   00000002   8308               ST      Y, R16
   \   00000004   810D               LDD     R16, Y+5
   \   00000006   8309               STD     Y+1, R16
   \   00000008   810E               LDD     R16, Y+6
   \   0000000A   830A               STD     Y+2, R16
   \   0000000C   810F               LDD     R16, Y+7
   \   0000000E   830B               STD     Y+3, R16
   \   00000010   8108               LD      R16, Y
   \   00000012   8119               LDD     R17, Y+1
   \   00000014   812A               LDD     R18, Y+2
   \   00000016   813B               LDD     R19, Y+3
   \   00000018   0FAA               LSL     R26
   \   0000001A   1FBB               ROL     R27
   \   0000001C   0FAA               LSL     R26
   \   0000001E   1FBB               ROL     R27
   \   00000020   01FD               MOVW    R31:R30, R27:R26
   \   00000022   ....               SUBI    R30, LOW((-(timer_tii) & 0xFFFF))
   \   00000024   ....               SBCI    R31, (-(timer_tii) & 0xFFFF) >> 8
   \   00000026   8140               LD      R20, Z
   \   00000028   8151               LDD     R21, Z+1
   \   0000002A   8162               LDD     R22, Z+2
   \   0000002C   8173               LDD     R23, Z+3
   \   0000002E   ....               RJMP    ?Subroutine108

   \                                 In segment FARCODE, align 2, keep-with-next
   \                     ?Subroutine125:
   \   00000000   E0E4               LDI     R30, 4
   \   00000002   ........           JMP     ?EPILOGUE_B4_L09

   \                                 In segment FARCODE, align 2, keep-with-next
   \                     ?Subroutine89:
   \   00000000   ........           JMP     ?PROLOGUE4_L09
    972           //////////           
    973          
    974          
    975          

   \                                 In segment FARCODE, align 2, keep-with-next
    976           void store_tii(void)  // записать в архив значения 1 минутные
   \                     store_tii:
    977           {
   \   00000000   939A               ST      -Y, R25
   \   00000002   938A               ST      -Y, R24
   \   00000004   9762               SBIW    R29:R28, 18
    978           char index,m;
    979           unsigned char zapis[14];
    980           
    981           unsigned int t_i,te; 
    982           
    983            union
    984             {     
    985             long int unix;
    986             char st[4]; 
    987             } tik;
    988             
    989           te=tii_bit_minut;   
   \   00000006   ....               RCALL   ??Subroutine84_0
   \                     ??CrossCallReturnLabel_142:
   \   00000008   8D06               LDD     R16, Z+30
   \   0000000A   8D17               LDD     R17, Z+31
    990           if (te==0) return;   
   \   0000000C   2F20               MOV     R18, R16
   \   0000000E   2B21               OR      R18, R17
   \   00000010   F409               BRNE    $+2+2
   \   00000012   C053               RJMP    ??CrossCallReturnLabel_268
    991           
    992           if( te & 0x8000) { m=15;goto zap_tii; }
   \   00000014   FB17               BST     R17, 7
   \   00000016   F416               BRTC    ??store_tii_0
   \   00000018   E02F               LDI     R18, 15
   \   0000001A   C016               RJMP    ??store_tii_1
    993           if( te & 0x4000) { m=14;goto zap_tii; }
   \                     ??store_tii_0:
   \   0000001C   FB16               BST     R17, 6
   \   0000001E   F416               BRTC    ??store_tii_2
   \   00000020   E02E               LDI     R18, 14
   \   00000022   C012               RJMP    ??store_tii_1
    994           
    995          
    996           if(sel_modul==1)
   \                     ??store_tii_2:
   \   00000024   9120....           LDS     R18, sel_modul
   \   00000028   3021               CPI     R18, 1
   \   0000002A   E020               LDI     R18, 0
   \   0000002C   F439               BRNE    ??store_tii_3
    997           {
    998             for (m=0; m < 5;m++)
    999                    {
   1000                    if( te & 1)goto zap_tii; 
   \                     ??store_tii_4:
   \   0000002E   FD00               SBRC    R16, 0
   \   00000030   C00B               RJMP    ??store_tii_1
   1001                                    
   1002                     te=te >> 1;               
   \   00000032   ....               RCALL   ?Subroutine91
   1003                    }
   \                     ??CrossCallReturnLabel_164:
   \   00000034   9523               INC     R18
   \   00000036   3025               CPI     R18, 5
   \   00000038   F438               BRCC    ??store_tii_1
   \   0000003A   CFF9               RJMP    ??store_tii_4
   1004           }
   1005           else
   1006           {
   1007           for (m=0; m < 8;m++)
   1008                    {
   1009                    if( te & 1)goto zap_tii; 
   \                     ??store_tii_3:
   \   0000003C   FD00               SBRC    R16, 0
   \   0000003E   C004               RJMP    ??store_tii_1
   1010                                    
   1011                     te=te >> 1;               
   \   00000040   ....               RCALL   ?Subroutine91
   1012                    }
   \                     ??CrossCallReturnLabel_165:
   \   00000042   9523               INC     R18
   \   00000044   3028               CPI     R18, 8
   \   00000046   F3D0               BRCS    ??store_tii_3
   1013           
   1014           }
   1015           
   1016          zap_tii:               
   1017           
   1018                
   1019          te=  1<<m;
   1020                                    
   1021          tii_bit_minut= tii_bit_minut & ~te; 
   \                     ??store_tii_1:
   \   00000048   ....               RCALL   ?Subroutine59
   \                     ??CrossCallReturnLabel_239:
   \   0000004A   2F42               MOV     R20, R18
   \   0000004C   ....               RCALL   ?Subroutine83
   \                     ??CrossCallReturnLabel_135:
   \   0000004E   8D46               LDD     R20, Z+30
   \   00000050   8D57               LDD     R21, Z+31
   \   00000052   2340               AND     R20, R16
   \   00000054   2351               AND     R21, R17
   \   00000056   8F46               STD     Z+30, R20
   \   00000058   8F57               STD     Z+31, R21
   1022           
   1023          index=0+m*2; 
   \   0000005A   2F02               MOV     R16, R18
   \   0000005C   ....               RCALL   ?Subroutine16
   1024          t_i=  ( ( unsigned long int)c2_byte.mb[index] + ( unsigned long int)(c2_byte.mb[index+1] & 7)*256);
   \                     ??CrossCallReturnLabel_18:
   \   0000005E   8140               LD      R20, Z
   \   00000060   8101               LDD     R16, Z+1
   \   00000062   7007               ANDI    R16, 0x07
   \   00000064   2F10               MOV     R17, R16
   \   00000066   2F04               MOV     R16, R20
   1025          if (t_i > 1440) return;
   \   00000068   3A41               CPI     R20, 161
   \   0000006A   E035               LDI     R19, 5
   \   0000006C   0713               CPC     R17, R19
   \   0000006E   F528               BRCC    ??CrossCallReturnLabel_268
   1026          if (t_i==0) return;
   \   00000070   2F34               MOV     R19, R20
   \   00000072   2B31               OR      R19, R17
   \   00000074   F111               BREQ    ??CrossCallReturnLabel_268
   1027          
   1028                                
   1029                                                  {
   1030                                                  tik.unix=timer_tii[m];        
   \   00000076   2F82               MOV     R24, R18
   \   00000078   E090               LDI     R25, 0
   \   0000007A   010C               MOVW    R1:R0, R25:R24
   \   0000007C   0C00               LSL     R0
   \   0000007E   1C11               ROL     R1
   \   00000080   0C00               LSL     R0
   \   00000082   1C11               ROL     R1
   \   00000084   01F0               MOVW    R31:R30, R1:R0
   \   00000086   ....               SUBI    R30, LOW((-(timer_tii) & 0xFFFF))
   \   00000088   ....               SBCI    R31, (-(timer_tii) & 0xFFFF) >> 8
   \   0000008A   ....               RCALL   ?Subroutine104
   \                     ??CrossCallReturnLabel_199:
   \   0000008C   ....               RCALL   ?Subroutine51
   1031               
   1032                                                   zapis[0]=tik.st[0];
   \                     ??CrossCallReturnLabel_63:
   \   0000008E   834C               STD     Y+4, R20
   1033                                                   zapis[1]=tik.st[1];
   \   00000090   835D               STD     Y+5, R21
   1034                                                   zapis[2]=tik.st[2];
   \   00000092   836E               STD     Y+6, R22
   1035                                                   zapis[3]=tik.st[3];
   \   00000094   837F               STD     Y+7, R23
   1036                                                       
   1037           
   1038            
   1039              __disable_interrupt();
   \   00000096   94F8               CLI
   1040            tik.unix=(arr_tii_32[m ]- start_ttii[m]);
   \   00000098   ....               RCALL   ?Subroutine45
   \                     ??CrossCallReturnLabel_203:
   \   0000009A   01F0               MOVW    R31:R30, R1:R0
   \   0000009C   ....               SUBI    R30, LOW((-(start_ttii) & 0xFFFF))
   \   0000009E   ....               SBCI    R31, (-(start_ttii) & 0xFFFF) >> 8
   \   000000A0   ....               RCALL   ?Subroutine106
   \                     ??CrossCallReturnLabel_210:
   \   000000A2   ....               RCALL   ?Subroutine92
   \                     ??CrossCallReturnLabel_168:
   \   000000A4   ....               RCALL   ?Subroutine51
   1041             __enable_interrupt();
   \                     ??CrossCallReturnLabel_64:
   \   000000A6   9478               SEI
   1042            
   1043                                                   zapis[6]=tik.st[0];
   \   000000A8   874A               STD     Y+10, R20
   1044                                                   zapis[7]=tik.st[1];
   \   000000AA   875B               STD     Y+11, R21
   1045                                                   zapis[8]=tik.st[2];
   \   000000AC   876C               STD     Y+12, R22
   1046                                                   zapis[9]=tik.st[3];
   \   000000AE   877D               STD     Y+13, R23
   1047            
   1048            
   1049            
   1050          
   1051            
   1052            zapis[4]=t_i;
   \   000000B0   8708               STD     Y+8, R16
   1053            zapis[5]=(t_i >>8);  
   \   000000B2   8719               STD     Y+9, R17
   1054            
   1055            zapis[10]=m;
   \   000000B4   872E               STD     Y+14, R18
   1056            zapis[11]=0;  
   \   000000B6   879F               STD     Y+15, R25
   1057                                               }
   1058           *(int*)&zapis[12]=crc_sum(&zapis[0],12);
   \   000000B8   ....               RCALL   ?Subroutine34
   1059            
   1060          
   1061          //send_info(sizeof(prov1),prov1,0,0);
   1062             
   1063          WrArrayToFlesh(STRUCT_TII+m*14,&zapis[0],14,0,0);            
   1064          
   1065                               /*
   1066                               //proverka
   1067                                S4_CH;
   1068                                UCSR2B=0; 
   1069                                UBRR2H = R115200_H;
   1070                                UBRR2L = R115200_L;     
   1071                                UCSR2B=UCSR2B | TXEN;
   1072                                s_port('w');
   1073                                s_port('r');
   1074                                s_port(' ');
   1075                                s_port('f');
   1076                                s_port('l');
   1077                                s_port('a');
   1078                                s_port('s');
   1079                                s_port('h');
   1080                                s_port(':');
   1081                                s_port(zapis[0]);
   1082                                s_port(zapis[1]);
   1083                                s_port(zapis[2]);
   1084                                s_port(zapis[3]);
   1085                                s_port(zapis[4]);
   1086                                s_port(zapis[5]);
   1087                                s_port(zapis[6]);
   1088                                s_port(zapis[7]);
   1089                                s_port(zapis[8]);
   1090                                s_port(zapis[9]);
   1091                                s_port(zapis[10]);
   1092                                s_port(zapis[11]);
   1093                                s_port(zapis[12]);
   1094                                s_port(zapis[13]);
   1095                                */
   1096          
   1097          /////////////////////////////////
   1098          }                  
   \                     ??CrossCallReturnLabel_268:
   \   000000BA   9662               ADIW    R29:R28, 18
   \   000000BC   ....               RJMP    ?Subroutine110

   \                                 In segment FARCODE, align 2, keep-with-next
   \                     ?Subroutine34:
   \   00000000   E02C               LDI     R18, 12
   \   00000002   018E               MOVW    R17:R16, R29:R28
   \   00000004   5F0C               SUBI    R16, 252
   \   00000006   4F1F               SBCI    R17, 255
   \   00000008   ....               RCALL   crc_sum
   \   0000000A   8B08               STD     Y+16, R16
   \   0000000C   8B19               STD     Y+17, R17
   \   0000000E   E070               LDI     R23, 0
   \   00000010   E060               LDI     R22, 0
   \   00000012   019E               MOVW    R19:R18, R29:R28
   \   00000014   5F2C               SUBI    R18, 252
   \   00000016   4F3F               SBCI    R19, 255
   \   00000018   01AC               MOVW    R21:R20, R25:R24
   \   0000001A   E00E               LDI     R16, 14
   \   0000001C   E010               LDI     R17, 0
   \   0000001E   ........           CALL    ?S_EC_MUL_L02
   \   00000022   5910               SUBI    R17, 144
   \   00000024   E04E               LDI     R20, 14
   \   00000026   ....               RJMP    ?Subroutine120

   \                                 In segment FARCODE, align 2, keep-with-next
   \                     ?Subroutine91:
   \   00000000   9516               LSR     R17
   \   00000002   9507               ROR     R16
   \   00000004   9508               RET

   \                                 In segment FARCODE, align 2, keep-with-next
   \                     ?Subroutine92:
   \   00000000   1940               SUB     R20, R0
   \   00000002   0951               SBC     R21, R1
   \   00000004   0962               SBC     R22, R2
   \   00000006   0973               SBC     R23, R3
   \   00000008   9508               RET

   \                                 In segment FARCODE, align 2, keep-with-next
   \                     ?Subroutine45:
   \   00000000   01F0               MOVW    R31:R30, R1:R0
   \   00000002   ....               SUBI    R30, LOW((-(arr_tii_32) & 0xFFFF))
   \   00000004   ....               SBCI    R31, (-(arr_tii_32) & 0xFFFF) >> 8
   \   00000006   ....               RJMP    ?Subroutine104
   1099           //////////
   1100           
   1101           
   1102           

   \                                 In segment FARCODE, align 2, keep-with-next
   1103           void store_tii_lock(char m)  // записать в архив значения 1 минутные
   \                     store_tii_lock:
   1104           {
   \   00000000   ....               RCALL   ?Subroutine95
   \                     ??CrossCallReturnLabel_177:
   \   00000002                      REQUIRE ?Register_R4_is_cg_reg
   \   00000002                      REQUIRE ?Register_R5_is_cg_reg
   \   00000002                      REQUIRE ?Register_R6_is_cg_reg
   \   00000002                      REQUIRE ?Register_R7_is_cg_reg
   \   00000002   9762               SBIW    R29:R28, 18
   \   00000004   2F40               MOV     R20, R16
   1105           char index;
   1106           unsigned char zapis[14];
   1107           unsigned int t_i,te; 
   1108           
   1109            union
   1110             {     
   1111             long int unix;
   1112             char st[4]; 
   1113             } tik;
   1114             
   1115           
   1116           
   1117          
   1118           
   1119          index=0+m*2; 
   \   00000006   ....               RCALL   ?Subroutine16
   1120          t_i=  ( ( unsigned long int)c2_byte.mb[index] + ( unsigned long int)(c2_byte.mb[index+1] & 7)*256);
   \                     ??CrossCallReturnLabel_19:
   \   00000008   ....               RCALL   ?Subroutine65
   1121          if (t_i > 1440) return;
   \                     ??CrossCallReturnLabel_95:
   \   0000000A   3A21               CPI     R18, 161
   \   0000000C   E025               LDI     R18, 5
   \   0000000E   0712               CPC     R17, R18
   \   00000010   F008               BRCS    $+2+2
   \   00000012   C044               RJMP    ??CrossCallReturnLabel_266
   1122          if (t_i==0) return;
   \   00000014   2F20               MOV     R18, R16
   \   00000016   2B21               OR      R18, R17
   \   00000018   F409               BRNE    $+2+2
   \   0000001A   C040               RJMP    ??CrossCallReturnLabel_266
   1123          
   1124                                
   1125                                                  {
   1126                                                  tik.unix=timer_tii[m];        
   \   0000001C   2F84               MOV     R24, R20
   \   0000001E   E090               LDI     R25, 0
   \   00000020   019C               MOVW    R19:R18, R25:R24
   \   00000022   0F22               LSL     R18
   \   00000024   1F33               ROL     R19
   \   00000026   0F22               LSL     R18
   \   00000028   1F33               ROL     R19
   \   0000002A   01F9               MOVW    R31:R30, R19:R18
   \   0000002C   ....               SUBI    R30, LOW((-(timer_tii) & 0xFFFF))
   \   0000002E   ....               SBCI    R31, (-(timer_tii) & 0xFFFF) >> 8
   \   00000030   ....               RCALL   ?Subroutine106
   \                     ??CrossCallReturnLabel_211:
   \   00000032   ....               RCALL   ?Subroutine48
   1127               
   1128                                                   zapis[0]=tik.st[0];
   1129                                                   zapis[1]=tik.st[1];
   1130                                                   zapis[2]=tik.st[2];
   1131                                                   zapis[3]=tik.st[3];
   1132                                                       
   1133           
   1134           __disable_interrupt();
   \                     ??CrossCallReturnLabel_56:
   \   00000034   94F8               CLI
   1135            tik.unix=(arr_tii_32[m ]- start_ttii[m]);
   \   00000036   01F9               MOVW    R31:R30, R19:R18
   \   00000038   ....               RCALL   ?Subroutine47
   \                     ??CrossCallReturnLabel_215:
   \   0000003A   01F9               MOVW    R31:R30, R19:R18
   \   0000003C   ....               SUBI    R30, LOW((-(start_ttii) & 0xFFFF))
   \   0000003E   ....               SBCI    R31, (-(start_ttii) & 0xFFFF) >> 8
   \   00000040   8040               LD      R4, Z
   \   00000042   8051               LDD     R5, Z+1
   \   00000044   8062               LDD     R6, Z+2
   \   00000046   8073               LDD     R7, Z+3
   \   00000048   ....               RCALL   ?Subroutine96
   \                     ??CrossCallReturnLabel_180:
   \   0000004A   ....               RCALL   ?Subroutine49
   1136            __enable_interrupt();
   \                     ??CrossCallReturnLabel_59:
   \   0000004C   9478               SEI
   1137                                                   zapis[6]=tik.st[0];
   \   0000004E   ....               RCALL   ?Subroutine97
   1138                                                   zapis[7]=tik.st[1];
   1139                                                   zapis[8]=tik.st[2];
   1140                                                   zapis[9]=tik.st[3];
   1141            
   1142            // записываем в архив либо замер импульсов либо мотоминуты
   1143            
   1144                                  tii_moto.config=*(unsigned int*)&c2_byte.mb[m<<1];
   \                     ??CrossCallReturnLabel_182:
   \   00000050   01BC               MOVW    R23:R22, R25:R24
   \   00000052   0F66               LSL     R22
   \   00000054   1F77               ROL     R23
   \   00000056   01FB               MOVW    R31:R30, R23:R22
   \   00000058   ....               SUBI    R30, LOW((-(c2_byte) & 0xFFFF))
   \   0000005A   ....               SBCI    R31, (-(c2_byte) & 0xFFFF) >> 8
   \   0000005C   8000               LD      R0, Z
   \   0000005E   8011               LDD     R1, Z+1
   \   00000060   ....               LDI     R26, LOW(timer_psm)
   \   00000062   ....               LDI     R27, (timer_psm) >> 8
   \   00000064   01FD               MOVW    R31:R30, R27:R26
   \   00000066   8E00               STD     Z+24, R0
   \   00000068   8E11               STD     Z+25, R1
   1145                                  if (tii_moto.bit.type_zam==1)  { *(unsigned long int*)&zapis[6]=cnt_moto[m];   }
   \   0000006A   E178               LDI     R23, 24
   \   0000006C   2171               AND     R23, R1
   \   0000006E   3090               CPI     R25, 0
   \   00000070   4078               SBCI    R23, 8
   \   00000072   F429               BRNE    ??CrossCallReturnLabel_183
   \   00000074   01F9               MOVW    R31:R30, R19:R18
   \   00000076   ....               SUBI    R30, LOW((-(cnt_moto) & 0xFFFF))
   \   00000078   ....               SBCI    R31, (-(cnt_moto) & 0xFFFF) >> 8
   \   0000007A   ....               RCALL   ?Subroutine106
   \                     ??CrossCallReturnLabel_212:
   \   0000007C   ....               RCALL   ?Subroutine97
   1146                                   *(unsigned int*)&zapis[4]=t_i; 
   \                     ??CrossCallReturnLabel_183:
   \   0000007E   8708               STD     Y+8, R16
   \   00000080   8719               STD     Y+9, R17
   1147                                  
   1148            
   1149            
   1150            //zapis[4]=t_i;
   1151            //zapis[5]=(t_i >>8);  
   1152            
   1153            zapis[10]=m;
   \   00000082   874E               STD     Y+14, R20
   1154            zapis[11]=0;  
   \   00000084   879F               STD     Y+15, R25
   1155                                               }
   1156            
   1157            
   1158          
   1159           te=  1<<m;
   1160                                    
   1161          tii_bit_minut= tii_bit_minut & ~te;         
   \   00000086   ....               RCALL   ?Subroutine59
   \                     ??CrossCallReturnLabel_240:
   \   00000088   ....               RCALL   ?Subroutine83
   \                     ??CrossCallReturnLabel_136:
   \   0000008A   01FD               MOVW    R31:R30, R27:R26
   \   0000008C   8D26               LDD     R18, Z+30
   \   0000008E   8D37               LDD     R19, Z+31
   \   00000090   2320               AND     R18, R16
   \   00000092   2331               AND     R19, R17
   \   00000094   8F26               STD     Z+30, R18
   \   00000096   8F37               STD     Z+31, R19
   1162                                    
   1163                                                             
   1164          *(int*)&zapis[12]=crc_sum(&zapis[0],12);     
   \   00000098   ....               RCALL   ?Subroutine34
   1165          WrArrayToFlesh(STRUCT_TII+m*14,&zapis[0],14,0,0);   
   1166          
   1167          
   1168           // записать в общую кучу
   1169          
   1170          
   1171          
   1172          WrArrayToFlesh(STRUCT_TII_HEAP + (int)modbus_mem1[AD_IND_DNS]*14,&zapis[0],14,0,0);
   \                     ??CrossCallReturnLabel_267:
   \   0000009A   ....               RCALL   ?Subroutine33
   1173          
   1174          
   1175          
   1176           
   1177          }                  
   \                     ??CrossCallReturnLabel_266:
   \   0000009C   9662               ADIW    R29:R28, 18
   \   0000009E                      REQUIRE ?Subroutine126
   \   0000009E                      ;               // Fall through to label ?Subroutine126

   \                                 In segment FARCODE, align 2, keep-with-next
   \                     ?Subroutine126:
   \   00000000   E0E8               LDI     R30, 8
   \   00000002   ........           JMP     ?EPILOGUE_B8_L09

   \                                 In segment FARCODE, align 2, keep-with-next
   \                     ?Subroutine97:
   \   00000000   860A               STD     Y+10, R0
   \   00000002   861B               STD     Y+11, R1
   \   00000004   862C               STD     Y+12, R2
   \   00000006   863D               STD     Y+13, R3
   \   00000008   9508               RET

   \                                 In segment FARCODE, align 2, keep-with-next
   \                     ?Subroutine47:
   \   00000000   ....               SUBI    R30, LOW((-(arr_tii_32) & 0xFFFF))
   \   00000002   ....               SBCI    R31, (-(arr_tii_32) & 0xFFFF) >> 8
   \   00000004                      REQUIRE ?Subroutine106
   \   00000004                      ;               // Fall through to label ?Subroutine106

   \                                 In segment FARCODE, align 2, keep-with-next
   \                     ?Subroutine48:
   \   00000000   8208               ST      Y, R0
   \   00000002   8219               STD     Y+1, R1
   \   00000004   822A               STD     Y+2, R2
   \   00000006   823B               STD     Y+3, R3
   \   00000008   820C               STD     Y+4, R0
   \   0000000A   821D               STD     Y+5, R1
   \   0000000C   822E               STD     Y+6, R2
   \   0000000E   823F               STD     Y+7, R3
   \   00000010   9508               RET

   \                                 In segment FARCODE, align 2, keep-with-next
   \                     ?Subroutine33:
   \   00000000   E070               LDI     R23, 0
   \   00000002   E060               LDI     R22, 0
   \   00000004   019E               MOVW    R19:R18, R29:R28
   \   00000006   5F2C               SUBI    R18, 252
   \   00000008   4F3F               SBCI    R19, 255
   \   0000000A   ....               LDI     R30, LOW((modbus_mem1 + 64))
   \   0000000C   ....               LDI     R31, HIGH((modbus_mem1 + 64))
   \   0000000E   8140               LD      R20, Z
   \   00000010   8151               LDD     R21, Z+1
   \   00000012   E00E               LDI     R16, 14
   \   00000014   E010               LDI     R17, 0
   \   00000016   ........           CALL    ?S_EC_MUL_L02
   \   0000001A   5A10               SUBI    R17, 160
   \   0000001C   E04E               LDI     R20, 14
   \   0000001E   E050               LDI     R21, 0
   \   00000020   ....               RJMP    ?Subroutine120

   \                                 In segment FARCODE, align 2, keep-with-next
   \                     ?Subroutine96:
   \   00000000   1804               SUB     R0, R4
   \   00000002   0815               SBC     R1, R5
   \   00000004   0826               SBC     R2, R6
   \   00000006   0837               SBC     R3, R7
   \   00000008   9508               RET

   \                                 In segment FARCODE, align 2, keep-with-next
   \                     ?Subroutine95:
   \   00000000   ........           JMP     ?PROLOGUE8_L09
   1178           ////////// 
   1179          
   1180          

   \                                 In segment FARCODE, align 2, keep-with-next
   1181           void store_tit_lock(char m)  // записать в архив значения 1 минутные
   \                     store_tit_lock:
   1182           {
   \   00000000   9762               SBIW    R29:R28, 18
   1183           char index;
   1184           unsigned char zapis[14];
   1185           unsigned int t_i; 
   1186           
   1187            union
   1188             {     
   1189             long int unix;
   1190             char st[4]; 
   1191             } tik;
   1192             
   1193           
   1194           
   1195          
   1196           
   1197          index=0x40+m*2; 
   \   00000002   2F20               MOV     R18, R16
   \   00000004   0F22               LSL     R18
   \   00000006   5C20               SUBI    R18, 192
   1198          t_i=  ( ( unsigned long int)c2_byte.mb[index] + ( unsigned long int)(c2_byte.mb[index+1] & 7)*256);
   \   00000008   ....               RCALL   ?Subroutine38
   1199          
   1200          
   1201                                
   1202                                                  {
   1203                                                  tik.unix=timer_tit[m];        
   \                     ??CrossCallReturnLabel_44:
   \   0000000A   2F60               MOV     R22, R16
   \   0000000C   E070               LDI     R23, 0
   \   0000000E   01AB               MOVW    R21:R20, R23:R22
   \   00000010   ....               RCALL   ?Subroutine86
   \                     ??CrossCallReturnLabel_148:
   \   00000012   01FA               MOVW    R31:R30, R21:R20
   \   00000014   ....               SUBI    R30, LOW((-(timer_psm) & 0xFFFF))
   \   00000016   ....               SBCI    R31, (-(timer_psm) & 0xFFFF) >> 8
   \   00000018   ....               RCALL   ?Subroutine98
   \                     ??CrossCallReturnLabel_184:
   \   0000001A   ....               RCALL   ?Subroutine48
   1204               
   1205                                                   zapis[0]=tik.st[0];
   1206                                                   zapis[1]=tik.st[1];
   1207                                                   zapis[2]=tik.st[2];
   1208                                                   zapis[3]=tik.st[3];
   \                     ??CrossCallReturnLabel_57:
   \   0000001C   ....               RCALL   ?Subroutine52
   \                     ??CrossCallReturnLabel_66:
   \   0000001E   0F66               LSL     R22
   \   00000020   1F77               ROL     R23
   \   00000022   0FE6               ADD     R30, R22
   \   00000024   1FF7               ADC     R31, R23
   \   00000026   A110               LDD     R17, Z+32
   \   00000028   A141               LDD     R20, Z+33
   \   0000002A   871A               STD     Y+10, R17
   1209                                                       
   1210          
   1211                                                   zapis[6]=modbus_mem1[AD_TIT1+m];
   1212                                                   zapis[7]=modbus_mem1[AD_TIT1+m]>>8;
   \   0000002C   874B               STD     Y+11, R20
   1213                                                   zapis[8]=0;
   \   0000002E   E010               LDI     R17, 0
   \   00000030   871C               STD     Y+12, R17
   1214                                                   zapis[9]=0;
   \   00000032   871D               STD     Y+13, R17
   1215            
   1216            
   1217            
   1218          
   1219            
   1220            
   1221            zapis[4]=t_i;
   \   00000034   8728               STD     Y+8, R18
   1222            zapis[5]=(t_i >>8);  
   \   00000036   8739               STD     Y+9, R19
   1223            
   1224            zapis[10]=m+80;
   \   00000038   5B00               SUBI    R16, 176
   \   0000003A   870E               STD     Y+14, R16
   1225            zapis[11]=0;  
   \   0000003C   871F               STD     Y+15, R17
   1226                                               }
   1227            
   1228            
   1229          
   1230               
   1231                                    
   1232                                                             
   1233          *(int*)&zapis[12]=crc_sum(&zapis[0],12);     
   \   0000003E   ....               RCALL   ?Subroutine42
   \                     ??CrossCallReturnLabel_262:
   \   00000040   8B08               STD     Y+16, R16
   \   00000042   8B19               STD     Y+17, R17
   1234          //WrArrayToFlesh(STRUCT_TII+m*14,&zapis[0],14,0,0);   26 01 2015
   1235          
   1236          
   1237           // записать в общую кучу
   1238          
   1239          
   1240          
   1241          WrArrayToFlesh(STRUCT_TII_HEAP + (int)modbus_mem1[AD_IND_DNS]*14,&zapis[0],14,0,0);
   \   00000044   ....               RCALL   ?Subroutine33
   1242          
   1243          
   1244          
   1245           
   1246          }                  
   \                     ??CrossCallReturnLabel_265:
   \   00000046                      REQUIRE ?Subroutine113
   \   00000046                      ;               // Fall through to label ?Subroutine113

   \                                 In segment FARCODE, align 2, keep-with-next
   \                     ?Subroutine113:
   \   00000000   9662               ADIW    R29:R28, 18
   \   00000002   9508               RET

   \                                 In segment FARCODE, align 2, keep-with-next
   \                     ?Subroutine42:
   \   00000000   E02C               LDI     R18, 12
   \                     ??Subroutine42_0:
   \   00000002   018E               MOVW    R17:R16, R29:R28
   \   00000004   5F0C               SUBI    R16, 252
   \   00000006   ....               RJMP    ?Subroutine119

   \                                 In segment FARCODE, align 2, keep-with-next
   \                     ?Subroutine98:
   \   00000000   8400               LDD     R0, Z+8
   \   00000002   8411               LDD     R1, Z+9
   \   00000004   8422               LDD     R2, Z+10
   \   00000006   8433               LDD     R3, Z+11
   \   00000008   9508               RET
   1247           ////////// 
   1248          
   1249          
   1250          

   \                                 In segment FARCODE, align 2, keep-with-next
   1251          void lock_arh_tit(void)  // записать в архив значения 
   \                     lock_arh_tit:
   1252           {
   \   00000000   ....               RCALL   ?Subroutine84
   1253           char m;
   1254           unsigned char i;
   1255          
   1256           unsigned int te; 
   1257           
   1258             
   1259           te=tit_bit;   
   \                     ??CrossCallReturnLabel_138:
   \   00000002   A104               LDD     R16, Z+36
   \   00000004   E010               LDI     R17, 0
   1260           if (te==0) return; 
   \   00000006   2300               TST     R16
   \   00000008   F099               BREQ    ??CrossCallReturnLabel_176
   1261           
   1262           
   1263           
   1264            
   1265           for (m=0; m < 2;m++)
   \   0000000A   E080               LDI     R24, 0
   \   0000000C   C004               RJMP    ??lock_arh_tit_0
   1266                    {
   1267                    if( te & 1)goto zap_titx; 
   1268                                    
   1269                     te=te >> 1;               
   \                     ??lock_arh_tit_1:
   \   0000000E   9506               LSR     R16
   \   00000010   9583               INC     R24
   \   00000012   3082               CPI     R24, 2
   \   00000014   F468               BRCC    ??CrossCallReturnLabel_176
   \                     ??lock_arh_tit_0:
   \   00000016   FF00               SBRS    R16, 0
   \   00000018   CFFA               RJMP    ??lock_arh_tit_1
   1270                    }
   1271           return;
   1272            
   1273          zap_titx:   
   1274               
   1275          
   1276            
   1277            
   1278              te=  1<<m;
   1279                                    
   1280          tit_bit= tit_bit & ~te;
   \   0000001A   E001               LDI     R16, 1
   \   0000001C   2F48               MOV     R20, R24
   \   0000001E   ....               RCALL   ?Subroutine85
   \                     ??CrossCallReturnLabel_145:
   \   00000020   9500               COM     R16
   \   00000022   A114               LDD     R17, Z+36
   \   00000024   2310               AND     R17, R16
   \   00000026   A314               STD     Z+36, R17
   1281          
   1282            //          send_info(sizeof(prov2),prov2,0,0);
   1283          
   1284                      store_tit_lock(m);    // записать результат
   \   00000028   2F08               MOV     R16, R24
   \   0000002A   ....               RCALL   store_tit_lock
   1285                     
   1286                     
   1287                       
   1288                      
   1289                      
   1290                      /*
   1291                      arr_cnt_tii_heap++; 
   1292                     if ( arr_cnt_tii_heap >99) arr_cnt_tii_heap=0;
   1293                     i=arr_cnt_tii_heap; */
   1294                     
   1295                     modbus_mem1[AD_IND_DNS]++;
   \   0000002C   ....               RCALL   ?Subroutine2
   1296                     if ( modbus_mem1[AD_IND_DNS] >99 ) {modbus_mem1[AD_IND_DNS]=0;}
   1297                     i=modbus_mem1[AD_IND_DNS];
   1298                    
   1299                     
   1300                     
   1301                     
   1302                     WrArrayToFlesh(A_IND_DNS,0,1,1,i);
   1303                     //WrArrayToFlesh(A_IND_DNS+1,0,1,1,0);
   1304            
   1305                   
   1306                     
   1307                      end_zamer_tit(m);    // вычислить время окончания замера
   \                     ??CrossCallReturnLabel_2:
   \   0000002E   ....               RCALL   ?Subroutine94
   1308                     
   1309                 
   1310                     
   1311                             
   1312            } 
   \                     ??CrossCallReturnLabel_176:
   \   00000030                      REQUIRE ?Subroutine114
   \   00000030                      ;               // Fall through to label ?Subroutine114

   \                                 In segment FARCODE, align 2, keep-with-next
   \                     ?Subroutine114:
   \   00000000   9189               LD      R24, Y+
   \   00000002   9508               RET

   \                                 In segment FARCODE, align 2, keep-with-next
   \                     ?Subroutine2:
   \   00000000   ....               LDI     R30, LOW((modbus_mem1 + 64))
   \   00000002   ....               LDI     R31, HIGH((modbus_mem1 + 64))
   \   00000004   8100               LD      R16, Z
   \   00000006   8111               LDD     R17, Z+1
   \   00000008   5F0F               SUBI    R16, 255
   \   0000000A   4F1F               SBCI    R17, 255
   \   0000000C   8300               ST      Z, R16
   \   0000000E   8311               STD     Z+1, R17
   \   00000010   3604               CPI     R16, 100
   \   00000012   E020               LDI     R18, 0
   \   00000014   4010               SBCI    R17, 0
   \   00000016   F010               BRCS    ??Subroutine2_0
   \   00000018   8320               ST      Z, R18
   \   0000001A   8321               STD     Z+1, R18
   \                     ??Subroutine2_0:
   \   0000001C   8170               LD      R23, Z
   \   0000001E   E061               LDI     R22, 1
   \   00000020   E041               LDI     R20, 1
   \   00000022   E050               LDI     R21, 0
   \   00000024   E030               LDI     R19, 0
   \   00000026   EF00               LDI     R16, 240
   \   00000028   E013               LDI     R17, 3
   \   0000002A   ........           CALL    WrArrayToFlesh
   \   0000002E   2F08               MOV     R16, R24
   \   00000030   9508               RET

   \                                 In segment FARCODE, align 2, keep-with-next
   \                     ?Subroutine94:
   \   00000000   ....               RJMP    end_zamer_tit
   1313          
   1314          
   1315                             

   \                                 In segment FARCODE, align 2, keep-with-next
   1316          void lock_arh(void)  // записать в архив значения 
   \                     lock_arh:
   1317           {
   \   00000000   ....               RCALL   ?Subroutine84
   1318           char m;
   1319           unsigned char i;
   1320          
   1321           unsigned int te; 
   1322           
   1323             
   1324           te=tii_bit;   
   \                     ??CrossCallReturnLabel_139:
   \   00000002   8D04               LDD     R16, Z+28
   \   00000004   8D15               LDD     R17, Z+29
   1325           if (te==0) return; 
   \   00000006   2F20               MOV     R18, R16
   \   00000008   2B21               OR      R18, R17
   \   0000000A   F139               BREQ    ??CrossCallReturnLabel_27
   1326           
   1327           
   1328           if( te & 0x8000) { m=15;goto zap_tiix; }
   \   0000000C   FB17               BST     R17, 7
   \   0000000E   F416               BRTC    ??lock_arh_0
   \   00000010   E08F               LDI     R24, 15
   \   00000012   C016               RJMP    ??lock_arh_1
   1329           if( te & 0x4000) { m=14;goto zap_tiix; }
   \                     ??lock_arh_0:
   \   00000014   FB16               BST     R17, 6
   \   00000016   F416               BRTC    ??lock_arh_2
   \   00000018   E08E               LDI     R24, 14
   \   0000001A   C012               RJMP    ??lock_arh_1
   1330           
   1331            if(sel_modul==1)
   \                     ??lock_arh_2:
   \   0000001C   9120....           LDS     R18, sel_modul
   \   00000020   3021               CPI     R18, 1
   \   00000022   E080               LDI     R24, 0
   \   00000024   F439               BRNE    ??lock_arh_3
   1332            {
   1333              for (m=0; m < 5;m++)
   1334                    {
   1335                    if( te & 1)goto zap_tiix; 
   \                     ??lock_arh_4:
   \   00000026   FD00               SBRC    R16, 0
   \   00000028   C00B               RJMP    ??lock_arh_1
   1336                                    
   1337                     te=te >> 1;               
   \   0000002A   ....               RCALL   ?Subroutine91
   1338                    }
   \                     ??CrossCallReturnLabel_166:
   \   0000002C   9583               INC     R24
   \   0000002E   3085               CPI     R24, 5
   \   00000030   F438               BRCC    ??lock_arh_1
   \   00000032   CFF9               RJMP    ??lock_arh_4
   1339            }
   1340            else
   1341            {
   1342           for (m=0; m < 8;m++)
   1343                    {
   1344                    if( te & 1)goto zap_tiix; 
   \                     ??lock_arh_3:
   \   00000034   FD00               SBRC    R16, 0
   \   00000036   C004               RJMP    ??lock_arh_1
   1345                                    
   1346                     te=te >> 1;               
   \   00000038   ....               RCALL   ?Subroutine91
   1347                    }
   \                     ??CrossCallReturnLabel_167:
   \   0000003A   9583               INC     R24
   \   0000003C   3088               CPI     R24, 8
   \   0000003E   F3D0               BRCS    ??lock_arh_3
   1348            }
   1349          zap_tiix:   
   1350               
   1351          
   1352            
   1353            
   1354              te=  1<<m;
   1355                                    
   1356          tii_bit= tii_bit & ~te;
   \                     ??lock_arh_1:
   \   00000040   ....               RCALL   ?Subroutine59
   \                     ??CrossCallReturnLabel_241:
   \   00000042   2F48               MOV     R20, R24
   \   00000044   ....               RCALL   ?Subroutine83
   \                     ??CrossCallReturnLabel_137:
   \   00000046   8D24               LDD     R18, Z+28
   \   00000048   8D35               LDD     R19, Z+29
   \   0000004A   2320               AND     R18, R16
   \   0000004C   2331               AND     R19, R17
   \   0000004E   8F24               STD     Z+28, R18
   \   00000050   8F35               STD     Z+29, R19
   1357          
   1358            //          send_info(sizeof(prov2),prov2,0,0);
   1359          
   1360                      store_tii_lock(m);    // записать результат
   \   00000052   2F08               MOV     R16, R24
   \   00000054   ....               RCALL   store_tii_lock
   1361                     
   1362                     
   1363                       
   1364                      
   1365                      
   1366                      /*
   1367                      arr_cnt_tii_heap++; 
   1368                     if ( arr_cnt_tii_heap >99) arr_cnt_tii_heap=0;
   1369                     i=arr_cnt_tii_heap; */
   1370                     
   1371                     modbus_mem1[AD_IND_DNS]++;
   \   00000056   ....               RCALL   ?Subroutine2
   1372                     if ( modbus_mem1[AD_IND_DNS] >99 ) {modbus_mem1[AD_IND_DNS]=0;}
   1373                     i=modbus_mem1[AD_IND_DNS];
   1374                    
   1375                     
   1376                     
   1377                     
   1378                     WrArrayToFlesh(A_IND_DNS,0,1,1,i);
   1379                     //WrArrayToFlesh(A_IND_DNS+1,0,1,1,0);
   1380            
   1381                   
   1382                     
   1383                      end_zamer(m);    // вычислить время окончания замера
   \                     ??CrossCallReturnLabel_3:
   \   00000058   ....               RCALL   ?Subroutine19
   1384                     
   1385           __disable_interrupt();
   1386               start_ttii[m]=arr_tii_32[m ]; // начать новый  заме               
   1387            __enable_interrupt();            
   1388                     
   1389                             
   1390            } 
   \                     ??CrossCallReturnLabel_27:
   \   0000005A   ....               RJMP    ?Subroutine114

   \                                 In segment FARCODE, align 2, keep-with-next
   \                     ?Subroutine19:
   \   00000000   ....               RCALL   end_zamer
   \   00000002   94F8               CLI
   \   00000004   E004               LDI     R16, 4
   \   00000006   9F80               MUL     R24, R16
   \   00000008   01F0               MOVW    R31:R30, R1:R0
   \   0000000A   ....               SUBI    R30, LOW((-(arr_tii_32) & 0xFFFF))
   \   0000000C   ....               SBCI    R31, (-(arr_tii_32) & 0xFFFF) >> 8
   \   0000000E   8100               LD      R16, Z
   \   00000010   8111               LDD     R17, Z+1
   \   00000012   8122               LDD     R18, Z+2
   \   00000014   8133               LDD     R19, Z+3
   \   00000016   01F0               MOVW    R31:R30, R1:R0
   \   00000018   ....               SUBI    R30, LOW((-(start_ttii) & 0xFFFF))
   \   0000001A   ....               SBCI    R31, (-(start_ttii) & 0xFFFF) >> 8
   \   0000001C   8300               ST      Z, R16
   \   0000001E   8311               STD     Z+1, R17
   \   00000020   8322               STD     Z+2, R18
   \   00000022   8333               STD     Z+3, R19
   \   00000024   9478               SEI
   \   00000026   9508               RET
   1391           
   1392          // ***************************************************процедуры ГЗУ

   \                                 In segment FARCODE, align 2, keep-with-next
   1393            char test_nenull(void)
   \                     test_nenull:
   1394              { 
   \   00000000   2F5B               MOV     R21, R27
   \   00000002   2F6A               MOV     R22, R26
   1395              char c,i,index;
   1396              int t_i; 
   1397             c=0;
   \   00000004   E000               LDI     R16, 0
   1398             for (i=0;i<c1_byte.mb[1*2];i++)
   \   00000006   E010               LDI     R17, 0
   \   00000008   ....               LDI     R30, LOW(c1_byte)
   \   0000000A   ....               LDI     R31, (c1_byte) >> 8
   \   0000000C   C012               RJMP    ??test_nenull_0
   1399                                                                      {
   1400                                                                      index=6*2+i*2;
   \                     ??test_nenull_1:
   \   0000000E   2F21               MOV     R18, R17
   \   00000010   0F22               LSL     R18
   \   00000012   5F24               SUBI    R18, 244
   1401                                                   t_i=  c1_byte.mb[index] + c1_byte.mb[index+1]*256;
   1402                                                                       if ( t_i !=0) c++;
   \   00000014   E030               LDI     R19, 0
   \   00000016   01DF               MOVW    R27:R26, R31:R30
   \   00000018   0FA2               ADD     R26, R18
   \   0000001A   1FB3               ADC     R27, R19
   \   0000001C   914C               LD      R20, X
   \   0000001E   01DF               MOVW    R27:R26, R31:R30
   \   00000020   0FA2               ADD     R26, R18
   \   00000022   1FB3               ADC     R27, R19
   \   00000024   9611               ADIW    R27:R26, 1
   \   00000026   913C               LD      R19, X
   \   00000028   2F24               MOV     R18, R20
   \   0000002A   2B23               OR      R18, R19
   \   0000002C   F009               BREQ    ??test_nenull_2
   \   0000002E   9503               INC     R16
   1403                                                                                   
   1404                                                                      }
   \                     ??test_nenull_2:
   \   00000030   9513               INC     R17
   \                     ??test_nenull_0:
   \   00000032   8122               LDD     R18, Z+2
   \   00000034   1712               CP      R17, R18
   \   00000036   F358               BRCS    ??test_nenull_1
   1405               return(c);                                                            
   \   00000038   2FA6               MOV     R26, R22
   \   0000003A   2FB5               MOV     R27, R21
   \   0000003C   9508               RET
   1406               }
   1407               
   1408                                                                      

   \                                 In segment FARCODE, align 2, keep-with-next
   1409          char test_switch_psm(void)
   \                     test_switch_psm:
   1410          {
   \   00000000   9120....           LDS     R18, (modbus_mem1 + 48)
   \   00000004   91E0....           LDS     R30, (timer_psm + 44)
   \   00000008   9100....           LDS     R16, (c1_byte + 2)
   \   0000000C   3008               CPI     R16, 8
   \   0000000E   F441               BRNE    ??test_switch_psm_0
   1411           if (c1_byte.mb[1*2]==8) 
   1412                                                 {                                   
   1413                                                 if ( pred_mask==8)
   \   00000010   30E8               CPI     R30, 8
   \   00000012   F451               BRNE    ??test_switch_psm_1
   1414                                                         { 
   1415                                                            if( ((modbus_mem1[AD_TS]>> 4) &0xf) !=1 ) return(0);
   \                     ??test_switch_psm_2:
   \   00000014   2F02               MOV     R16, R18
   \   00000016   7F00               ANDI    R16, 0xF0
   \   00000018   3100               CPI     R16, 16
   \   0000001A   F069               BREQ    ??test_switch_psm_3
   \                     ??test_switch_psm_4:
   \   0000001C   E000               LDI     R16, 0
   \   0000001E   9508               RET
   1416                                                            return(1);
   1417                                                         }
   1418                                                 if ( (pred_mask+1) != ((modbus_mem1[AD_TS]>> 4) &0xf) ) return(0);        
   1419                                                 return(1);
   1420                                                              
   1421                                                 } 
   1422          ////////////////
   1423            if (c1_byte.mb[1*2]==14) 
   \                     ??test_switch_psm_0:
   \   00000020   300E               CPI     R16, 14
   \   00000022   F7E1               BRNE    ??test_switch_psm_4
   1424                                                 {                                   
   1425                                                 if ( pred_mask==14)
   \   00000024   30EE               CPI     R30, 14
   \   00000026   F3B1               BREQ    ??test_switch_psm_2
   1426                                                         { 
   1427                                                            if( ((modbus_mem1[AD_TS]>> 4) &0xf) !=1 ) return(0);
   1428                                                            return(1);
   1429                                                         }
   1430                                                 if ( (pred_mask+1) != ((modbus_mem1[AD_TS]>> 4) &0xf) ) return(0);        
   1431                                                 return(1);
   1432                                                              
   1433                                                 }
   \                     ??test_switch_psm_1:
   \   00000028   E0F0               LDI     R31, 0
   \   0000002A   9631               ADIW    R31:R30, 1
   \   0000002C   9522               SWAP    R18
   \   0000002E   702F               ANDI    R18, 0x0F
   \   00000030   17E2               CP      R30, R18
   \   00000032   40F0               SBCI    R31, 0
   \   00000034   F799               BRNE    ??test_switch_psm_4
   \                     ??test_switch_psm_3:
   \   00000036   E001               LDI     R16, 1
   \   00000038   9508               RET
   1434           return(0);                                                                             
   1435          }
   1436          
   1437          
   1438          
   1439          
   1440            
   1441            ////////////////////////////////////////

   \                                 In segment FARCODE, align 2, keep-with-next
   1442          void store_ys_minut(void)  // записать в архив значения за минуту
   \                     store_ys_minut:
   1443           {
   \   00000000   ....               RCALL   ?Subroutine95
   \                     ??CrossCallReturnLabel_178:
   \   00000002                      REQUIRE ?Register_R4_is_cg_reg
   \   00000002                      REQUIRE ?Register_R5_is_cg_reg
   \   00000002                      REQUIRE ?Register_R6_is_cg_reg
   \   00000002                      REQUIRE ?Register_R7_is_cg_reg
   \   00000002   9762               SBIW    R29:R28, 18
   1444           char index;
   1445          unsigned int t_i;
   1446          union
   1447             {     
   1448             long int unix;
   1449             char st[4]; 
   1450             } tik;     
   1451          unsigned char zapis[14];  
   1452                 
   1453                     
   1454                     
   1455                     bit_zamer_psm=0;
   \   00000004   ....               LDI     R26, LOW(timer_psm)
   \   00000006   ....               LDI     R27, (timer_psm) >> 8
   \   00000008   ....               RCALL   ?Subroutine13
   \                     ??CrossCallReturnLabel_247:
   \   0000000A   A302               STD     Z+34, R16
   1456          
   1457                                                  
   1458                                                  tik.unix=unix_psm;        
   \   0000000C   ....               RCALL   ?Subroutine75
   \                     ??CrossCallReturnLabel_115:
   \   0000000E   ....               RCALL   ?Subroutine107
   1459               
   1460                                                   zapis[0]=tik.st[0];
   \                     ??CrossCallReturnLabel_218:
   \   00000010   ....               RCALL   ?Subroutine29
   1461                                                   zapis[1]=tik.st[1];
   1462                                                   zapis[2]=tik.st[2];
   1463                                                   zapis[3]=tik.st[3];
   1464                                                     
   1465               __disable_interrupt();
   1466            t_i=delta_ys+(arr_tii_32[c1_byte.mb[4*2] ]- start_tii_gzu)/2;
   \                     ??CrossCallReturnLabel_35:
   \   00000012   8944               LDD     R20, Z+20
   \   00000014   8955               LDD     R21, Z+21
   \   00000016   01F8               MOVW    R31:R30, R17:R16
   \   00000018   8520               LDD     R18, Z+8
   \   0000001A   E034               LDI     R19, 4
   \   0000001C   9F23               MUL     R18, R19
   \   0000001E   01F0               MOVW    R31:R30, R1:R0
   \   00000020   ....               RCALL   ?Subroutine47
   \                     ??CrossCallReturnLabel_216:
   \   00000022   01FD               MOVW    R31:R30, R27:R26
   \   00000024   8840               LDD     R4, Z+16
   \   00000026   8851               LDD     R5, Z+17
   \   00000028   8862               LDD     R6, Z+18
   \   0000002A   8873               LDD     R7, Z+19
   \   0000002C   ....               RCALL   ?Subroutine96
   \                     ??CrossCallReturnLabel_181:
   \   0000002E   9436               LSR     R3
   \   00000030   9427               ROR     R2
   \   00000032   9417               ROR     R1
   \   00000034   9407               ROR     R0
   \   00000036   0E04               ADD     R0, R20
   \   00000038   1E15               ADC     R1, R21
   1467             __enable_interrupt(); 
   \   0000003A   9478               SEI
   1468            zapis[6]=t_i;
   \   0000003C   860A               STD     Y+10, R0
   1469            zapis[7]=t_i >>8; 
   \   0000003E   861B               STD     Y+11, R1
   1470            
   1471                                                  
   1472            
   1473          //////    
   1474           index=6*2+( tekpsm-1)*2;    
   \   00000040   A543               LDD     R20, Z+43
   \   00000042   2F24               MOV     R18, R20
   \   00000044   ....               RCALL   ?Subroutine40
   1475            
   1476            t_i=  (( ( unsigned long int)c1_byte.mb[index] + ( unsigned long int)c1_byte.mb[index+1]*256)); // реальное время замера
   \                     ??CrossCallReturnLabel_49:
   \   00000046   8120               LD      R18, Z
   \   00000048   8011               LDD     R1, Z+1
   1477            zapis[4]=t_i;
   \   0000004A   8728               STD     Y+8, R18
   1478            zapis[5]=t_i >>8;       
   \   0000004C   8619               STD     Y+9, R1
   1479            
   1480            zapis[8]=tekpsm;
   \   0000004E   874C               STD     Y+12, R20
   1481            zapis[9]=0; 
   \   00000050   873D               STD     Y+13, R19
   1482            
   1483                
   1484                                    
   1485                                                             
   1486          *(int*)&zapis[10]=crc_sum(&zapis[0],10);     
   \   00000052   ....               RCALL   ?Subroutine32
   1487          WrArrayToFlesh(STRUCT_US  + modbus_mem1[AD_IND_GZU]*12,&zapis[0],12,0,0);
   1488            
   1489           
   1490                      bit_zamer_psm=0; 
   1491                     
   1492           }
   \                     ??CrossCallReturnLabel_243:
   \   00000054   ....               RJMP    ?Subroutine126

   \                                 In segment FARCODE, align 2, keep-with-next
   \                     ?Subroutine40:
   \   00000000   0F22               LSL     R18
   \   00000002   5F26               SUBI    R18, 246
   \   00000004   E030               LDI     R19, 0
   \   00000006   0F02               ADD     R16, R18
   \   00000008   1F13               ADC     R17, R19
   \   0000000A   01F8               MOVW    R31:R30, R17:R16
   \   0000000C   9508               RET

   \                                 In segment FARCODE, align 2, keep-with-next
   \                     ?Subroutine32:
   \   00000000   E02A               LDI     R18, 10
   \   00000002   018E               MOVW    R17:R16, R29:R28
   \   00000004   5F0C               SUBI    R16, 252
   \   00000006   4F1F               SBCI    R17, 255
   \   00000008   ....               RCALL   crc_sum
   \   0000000A   870E               STD     Y+14, R16
   \   0000000C   871F               STD     Y+15, R17
   \   0000000E   E070               LDI     R23, 0
   \   00000010   E060               LDI     R22, 0
   \   00000012   E04C               LDI     R20, 12
   \   00000014   E050               LDI     R21, 0
   \   00000016   019E               MOVW    R19:R18, R29:R28
   \   00000018   5F2C               SUBI    R18, 252
   \   0000001A   4F3F               SBCI    R19, 255
   \   0000001C   012A               MOVW    R5:R4, R21:R20
   \   0000001E   ....               LDI     R30, LOW((modbus_mem1 + 62))
   \   00000020   ....               LDI     R31, HIGH((modbus_mem1 + 62))
   \   00000022   8140               LD      R20, Z
   \   00000024   8151               LDD     R21, Z+1
   \   00000026   E00C               LDI     R16, 12
   \   00000028   E010               LDI     R17, 0
   \   0000002A   ........           CALL    ?S_EC_MUL_L02
   \   0000002E   5E10               SUBI    R17, 224
   \   00000030   01A2               MOVW    R21:R20, R5:R4
   \   00000032   ........           CALL    WrArrayToFlesh
   \   00000036   01FD               MOVW    R31:R30, R27:R26
   \   00000038   A252               STD     Z+34, R5
   \   0000003A   ....               RJMP    ?Subroutine113

   \                                 In segment FARCODE, align 2, keep-with-next
   \                     ?Subroutine29:
   \   00000000   830C               STD     Y+4, R16
   \   00000002   831D               STD     Y+5, R17
   \   00000004   832E               STD     Y+6, R18
   \   00000006   833F               STD     Y+7, R19
   \   00000008   94F8               CLI
   \   0000000A   ....               LDI     R16, LOW(c1_byte)
   \   0000000C   ....               LDI     R17, (c1_byte) >> 8
   \   0000000E   9508               RET
   1493          ///////////////////////////           

   \                                 In segment FARCODE, align 2, keep-with-next
   1494          void store_ys_lock(void)  // записать в архив значения 
   \                     store_ys_lock:
   1495           {
   \   00000000   ........           CALL    ?PROLOGUE6_L09
   \   00000004                      REQUIRE ?Register_R4_is_cg_reg
   \   00000004                      REQUIRE ?Register_R5_is_cg_reg
   \   00000004   9762               SBIW    R29:R28, 18
   1496           char index;
   1497          unsigned int t_i;
   1498          union
   1499             {     
   1500             long int unix;
   1501             char st[4]; 
   1502             } tik;     
   1503          unsigned char zapis[14]; 
   1504            
   1505                             
   1506                     bit_zamer_psm=0;
   \   00000006   ....               LDI     R26, LOW(timer_psm)
   \   00000008   ....               LDI     R27, (timer_psm) >> 8
   \   0000000A   ....               RCALL   ?Subroutine13
   \                     ??CrossCallReturnLabel_248:
   \   0000000C   A302               STD     Z+34, R16
   1507          
   1508                                                  
   1509                                                  tik.unix=unix;    //  unix_psm;   27 06 06     
   \   0000000E   ....               RCALL   ?Subroutine22
   1510               
   1511                                                   zapis[0]=tik.st[0];
   \                     ??CrossCallReturnLabel_220:
   \   00000010   ....               RCALL   ?Subroutine29
   1512                                                   zapis[1]=tik.st[1];
   1513                                                   zapis[2]=tik.st[2];
   1514                                                   zapis[3]=tik.st[3];
   1515                                                     
   1516              __disable_interrupt();
   1517            t_i=delta_ys+(arr_tii_32[c1_byte.mb[4*2] ]- start_tii_gzu)/2;
   \                     ??CrossCallReturnLabel_36:
   \   00000012   01FD               MOVW    R31:R30, R27:R26
   \   00000014   8944               LDD     R20, Z+20
   \   00000016   8955               LDD     R21, Z+21
   \   00000018   019A               MOVW    R19:R18, R21:R20
   \   0000001A   01F8               MOVW    R31:R30, R17:R16
   \   0000001C   8540               LDD     R20, Z+8
   \   0000001E   E054               LDI     R21, 4
   \   00000020   9F45               MUL     R20, R21
   \   00000022   ....               RCALL   ?Subroutine45
   \                     ??CrossCallReturnLabel_204:
   \   00000024   01FD               MOVW    R31:R30, R27:R26
   \   00000026   8800               LDD     R0, Z+16
   \   00000028   8811               LDD     R1, Z+17
   \   0000002A   8822               LDD     R2, Z+18
   \   0000002C   8833               LDD     R3, Z+19
   \   0000002E   ....               RCALL   ?Subroutine92
   \                     ??CrossCallReturnLabel_169:
   \   00000030   9576               LSR     R23
   \   00000032   9567               ROR     R22
   \   00000034   9557               ROR     R21
   \   00000036   9547               ROR     R20
   \   00000038   0F24               ADD     R18, R20
   \   0000003A   1F53               ADC     R21, R19
   1518              __enable_interrupt(); 
   \   0000003C   9478               SEI
   1519            zapis[6]=t_i;
   \   0000003E   872A               STD     Y+10, R18
   1520            zapis[7]=t_i >>8; 
   \   00000040   875B               STD     Y+11, R21
   1521            
   1522                                                  
   1523            
   1524          //////    
   1525           index=6*2+( tekpsm-1)*2;    
   \   00000042   A583               LDD     R24, Z+43
   \   00000044   2F28               MOV     R18, R24
   \   00000046   ....               RCALL   ?Subroutine40
   1526           //  t_i=global_count_psm/60;
   1527           //  if ( (global_count_psm%60) >20 ) t_i++;
   1528             
   1529            t_i=  (( ( unsigned long int)c1_byte.mb[index] + ( unsigned long int)c1_byte.mb[index+1]*256)); 
   1530            t_i=t_i- (timer_psm/60);            // реальный интервал замера 07 02 2013
   \                     ??CrossCallReturnLabel_50:
   \   00000048   8040               LD      R4, Z
   \   0000004A   8051               LDD     R5, Z+1
   \   0000004C   ....               RCALL   ?Subroutine74
   \                     ??CrossCallReturnLabel_254:
   \   0000004E   E34C               LDI     R20, 60
   \   00000050   E050               LDI     R21, 0
   \   00000052   E060               LDI     R22, 0
   \   00000054   E070               LDI     R23, 0
   \   00000056   ........           CALL    ?UL_DIVMOD_L03
   \   0000005A   01A2               MOVW    R21:R20, R5:R4
   \   0000005C   1B40               SUB     R20, R16
   \   0000005E   0B51               SBC     R21, R17
   1531            if ( t_i==0) t_i=1;
   \   00000060   2F04               MOV     R16, R20
   \   00000062   2B05               OR      R16, R21
   \   00000064   F411               BRNE    ??store_ys_lock_0
   \   00000066   E041               LDI     R20, 1
   \   00000068   E050               LDI     R21, 0
   1532            
   1533            zapis[4]=t_i;
   \                     ??store_ys_lock_0:
   \   0000006A   8748               STD     Y+8, R20
   1534            zapis[5]=t_i >>8;  
   \   0000006C   8759               STD     Y+9, R21
   1535            
   1536             zapis[8]=tekpsm;
   \   0000006E   878C               STD     Y+12, R24
   1537            zapis[9]=0; 
   \   00000070   E000               LDI     R16, 0
   \   00000072   870D               STD     Y+13, R16
   1538            
   1539                                                               
   1540          *(int*)&zapis[10]=crc_sum(&zapis[0],10);     
   \   00000074   ....               RCALL   ?Subroutine32
   1541          WrArrayToFlesh(STRUCT_US  + modbus_mem1[AD_IND_GZU]*12,&zapis[0],12,0,0);
   1542          bit_zamer_psm=0;
   1543                       
   1544                     
   1545           }
   \                     ??CrossCallReturnLabel_244:
   \   00000076                      REQUIRE ?Subroutine118
   \   00000076                      ;               // Fall through to label ?Subroutine118
   1546          ///////////////////////////   
   1547             
   1548             ////////////////////////////////////  
   1549            

   \                                 In segment FARCODE, align 2, keep-with-next
   1550           void store_ys(void)  // записать в архив значения
   \                     store_ys:
   1551           {
   \   00000000   ....               RCALL   ?Subroutine89
   1552             char i;
   1553           
   1554                     store_ys_lock();
   \                     ??CrossCallReturnLabel_158:
   \   00000002   ....               RCALL   store_ys_lock
   1555                     
   1556                
   1557                     
   1558                     
   1559                      modbus_mem1[AD_IND_GZU]++;
   \   00000004   ....               RCALL   ?Subroutine52
   \                     ??CrossCallReturnLabel_67:
   \   00000006   01DF               MOVW    R27:R26, R31:R30
   \   00000008   96DE               ADIW    R27:R26, 62
   \   0000000A   910D               LD      R16, X+
   \   0000000C   911C               LD      R17, X
   \   0000000E   5F0F               SUBI    R16, 255
   \   00000010   4F1F               SBCI    R17, 255
   \   00000012   931C               ST      X, R17
   \   00000014   930E               ST      -X, R16
   1560                     if ( modbus_mem1[AD_IND_GZU] >54 ) {modbus_mem1[AD_IND_GZU]=0;}
   \   00000016   01C8               MOVW    R25:R24, R17:R16
   \   00000018   3307               CPI     R16, 55
   \   0000001A   4090               SBCI    R25, 0
   \   0000001C   F028               BRCS    ??store_ys_0
   \   0000001E   E000               LDI     R16, 0
   \   00000020   01DF               MOVW    R27:R26, R31:R30
   \   00000022   96DE               ADIW    R27:R26, 62
   \   00000024   930D               ST      X+, R16
   \   00000026   930C               ST      X, R16
   1561                     i=modbus_mem1[AD_IND_GZU];
   1562                    
   1563                     
   1564                     
   1565                     
   1566                     WrArrayToFlesh(A_IND_GZU,0,1,1,i);
   \                     ??store_ys_0:
   \   00000028   96FE               ADIW    R31:R30, 62
   \   0000002A   8170               LD      R23, Z
   \   0000002C   E061               LDI     R22, 1
   \   0000002E   E041               LDI     R20, 1
   \   00000030   E050               LDI     R21, 0
   \   00000032   E020               LDI     R18, 0
   \   00000034   E030               LDI     R19, 0
   \   00000036   EF02               LDI     R16, 242
   \   00000038   E013               LDI     R17, 3
   \   0000003A   ........           CALL    WrArrayToFlesh
   1567                     
   1568                    
   1569           }
   \   0000003E   ....               RJMP    ?Subroutine125
   1570          
   1571          ////////////////////////// автомат состояний ГЗУ

   \                                 In segment FARCODE, align 2, keep-with-next
   1572          void local_psm(void) 
   \                     local_psm:
   1573          {     
   \   00000000   ........           CALL    ?PROLOGUE16_L09
   \   00000004                      REQUIRE ?Register_R4_is_cg_reg
   \   00000004                      REQUIRE ?Register_R5_is_cg_reg
   \   00000004                      REQUIRE ?Register_R6_is_cg_reg
   \   00000004                      REQUIRE ?Register_R7_is_cg_reg
   \   00000004                      REQUIRE ?Register_R10_is_cg_reg
   \   00000004                      REQUIRE ?Register_R11_is_cg_reg
   \   00000004                      REQUIRE ?Register_R12_is_cg_reg
   \   00000004                      REQUIRE ?Register_R13_is_cg_reg
   \   00000004                      REQUIRE ?Register_R14_is_cg_reg
   \   00000004                      REQUIRE ?Register_R15_is_cg_reg
   \   00000004   9762               SBIW    R29:R28, 18
   1574             char  c,index;
   1575             unsigned int t_i;
   1576             union
   1577             {     
   1578             long int unix;
   1579             char st[4]; 
   1580             } tik;  
   1581            unsigned char zapis[14];
   1582            
   1583            
   1584            
   1585             if (c1_byte.mb[0]!=0x55){ err_psm=1;sost_psm=1;return;} 
   \   00000006   ....               LDI     R26, LOW(timer_psm)
   \   00000008   ....               LDI     R27, (timer_psm) >> 8
   \   0000000A   ....               LDI     R24, LOW(c1_byte)
   \   0000000C   ....               LDI     R25, (c1_byte) >> 8
   \   0000000E   01FC               MOVW    R31:R30, R25:R24
   \   00000010   8100               LD      R16, Z
   \   00000012   3505               CPI     R16, 85
   \   00000014   F021               BREQ    ??local_psm_0
   \                     ??local_psm_1:
   \   00000016   E001               LDI     R16, 1
   \   00000018   01FD               MOVW    R31:R30, R27:R26
   \   0000001A   A700               STD     Z+40, R16
   \   0000001C   C0FF               RJMP    ??local_psm_2
   1586            
   1587                         
   1588             // переключение  до заданного усане зависимо от положения ручной автомат
   1589             
   1590             if (  (zadan_ys > 0) && (zadan_ys <15)  )
   \                     ??local_psm_0:
   \   0000001E   01FD               MOVW    R31:R30, R27:R26
   \   00000020   A901               LDD     R16, Z+49
   \   00000022   A4D3               LDD     R13, Z+43
   \   00000024   A517               LDD     R17, Z+47
   \   00000026   2311               TST     R17
   \   00000028   F091               BREQ    ??local_psm_3
   \   0000002A   301F               CPI     R17, 15
   \   0000002C   F480               BRCC    ??local_psm_3
   1591                     {
   1592                     fin_ys=zadan_ys; 
   \   0000002E   A715               STD     Z+45, R17
   1593                     zadan_ys=0; 
   \   00000030   E020               LDI     R18, 0
   \   00000032   A727               STD     Z+47, R18
   1594                     if ( tekpsm !=fin_ys)
   \   00000034   16D1               CP      R13, R17
   \   00000036   F049               BREQ    ??local_psm_4
   1595                                          {
   1596                                          if ( sost_psm==4) store_ys();  
   \   00000038   3004               CPI     R16, 4
   \   0000003A   F409               BRNE    ??CrossCallReturnLabel_191
   \   0000003C   ....               RCALL   ?Subroutine100
   1597                                          global_try=3; 
   \                     ??CrossCallReturnLabel_191:
   \   0000003E   E003               LDI     R16, 3
   \   00000040   01FD               MOVW    R31:R30, R27:R26
   \   00000042   AB00               STD     Z+48, R16
   1598                                          count_sboj=15;
   \   00000044   E00F               LDI     R16, 15
   \   00000046   A706               STD     Z+46, R16
   \   00000048   C170               RJMP    ??local_psm_5
   1599                                          sost_psm=9;
   1600                                          return;
   1601                                          }
   1602                      global_try=3;
   \                     ??local_psm_4:
   \   0000004A   E013               LDI     R17, 3
   \   0000004C   AB10               STD     Z+48, R17
   1603                     }
   1604                     
   1605                     
   1606                     
   1607            
   1608                            
   1609                
   1610                                  
   1611                         
   1612          switch (sost_psm) 
   \                     ??local_psm_3:
   \   0000004E   2CBD               MOV     R11, R13
   \   00000050   0CBB               LSL     R11
   \   00000052   E01A               LDI     R17, 10
   \   00000054   0EB1               ADD     R11, R17
   \   00000056   ....               RCALL   ?Subroutine52
   \                     ??CrossCallReturnLabel_68:
   \   00000058   A920               LDD     R18, Z+48
   \   0000005A   2EA2               MOV     R10, R18
   \   0000005C   94A2               SWAP    R10
   \   0000005E   E01F               LDI     R17, 15
   \   00000060   22A1               AND     R10, R17
   \   00000062   01FC               MOVW    R31:R30, R25:R24
   \   00000064   8046               LDD     R4, Z+6
   \   00000066   2455               CLR     R5
   \   00000068   84F2               LDD     R15, Z+10
   \   0000006A   01FD               MOVW    R31:R30, R27:R26
   \   0000006C   A8E0               LDD     R14, Z+48
   \   0000006E   A4C4               LDD     R12, Z+44
   \   00000070   950A               DEC     R16
   \   00000072   F0F1               BREQ    ??local_psm_6
   \   00000074   950A               DEC     R16
   \   00000076   F1E1               BREQ    ??local_psm_7
   \   00000078   950A               DEC     R16
   \   0000007A   F409               BRNE    $+2+2
   \   0000007C   C052               RJMP    ??local_psm_8
   \   0000007E   950A               DEC     R16
   \   00000080   F409               BRNE    $+2+2
   \   00000082   C0CE               RJMP    ??local_psm_9
   \   00000084   950A               DEC     R16
   \   00000086   F409               BRNE    $+2+2
   \   00000088   C0F5               RJMP    ??local_psm_10
   \   0000008A   950A               DEC     R16
   \   0000008C   F409               BRNE    $+2+2
   \   0000008E   C0FF               RJMP    ??local_psm_11
   \   00000090   950A               DEC     R16
   \   00000092   F409               BRNE    $+2+2
   \   00000094   C105               RJMP    ??local_psm_12
   \   00000096   950A               DEC     R16
   \   00000098   F409               BRNE    $+2+2
   \   0000009A   C113               RJMP    ??local_psm_13
   \   0000009C   950A               DEC     R16
   \   0000009E   F409               BRNE    $+2+2
   \   000000A0   C12D               RJMP    ??local_psm_14
   \   000000A2   950A               DEC     R16
   \   000000A4   F409               BRNE    $+2+2
   \   000000A6   C12D               RJMP    ??local_psm_15
   \   000000A8   950A               DEC     R16
   \   000000AA   F409               BRNE    $+2+2
   \   000000AC   C130               RJMP    ??local_psm_16
   \   000000AE   C0B6               RJMP    ??local_psm_2
   \                     ??local_psm_6:
   \   000000B0   9522               SWAP    R18
   \   000000B2   702F               ANDI    R18, 0x0F
   \   000000B4   01FC               MOVW    R31:R30, R25:R24
   \   000000B6   8102               LDD     R16, Z+2
   \   000000B8   3008               CPI     R16, 8
   \   000000BA   F469               BRNE    ??local_psm_17
   1613             {              
   1614                case 1:
   1615                        {     
   1616                        
   1617                            if (c1_byte.mb[1*2]==8) 
   1618                                                 {
   1619                                                  c=((modbus_mem1[AD_TS]>> 4) &0xf);
   1620                                                  if ( (c==0) | (c > 8) ) 
   \   000000BC   2322               TST     R18
   \   000000BE   F039               BREQ    ??local_psm_18
   \   000000C0   3029               CPI     R18, 9
   \   000000C2   F428               BRCC    ??local_psm_18
   1621                                                                  {
   1622                                                                  err_psm=1;
   1623                                                                  break;
   1624                                                                  } 
   1625                                                  tekpsm=c;  
   \   000000C4   01FD               MOVW    R31:R30, R27:R26
   \   000000C6   A6A3               STD     Z+43, R10
   1626                                                  err_psm=0;               
   \   000000C8   A650               STD     Z+40, R5
   1627                                                  sost_psm=2;
   \   000000CA   E002               LDI     R16, 2
   \   000000CC   C12F               RJMP    ??local_psm_19
   \                     ??local_psm_18:
   \   000000CE   E001               LDI     R16, 1
   \   000000D0   01FD               MOVW    R31:R30, R27:R26
   \   000000D2   A700               STD     Z+40, R16
   \   000000D4   C12C               RJMP    ??local_psm_20
   1628                                                  break;                
   1629                                                 }
   1630                            if (c1_byte.mb[1*2]==14) 
   \                     ??local_psm_17:
   \   000000D6   300E               CPI     R16, 14
   \   000000D8   F009               BREQ    $+2+2
   \   000000DA   C129               RJMP    ??local_psm_20
   1631                                                 {
   1632                                                  c=((modbus_mem1[AD_TS]>> 4) &0xf);
   1633                                                  if ( (c==0) | (c > 14) ) 
   \   000000DC   2322               TST     R18
   \   000000DE   F3B9               BREQ    ??local_psm_18
   \   000000E0   302F               CPI     R18, 15
   \   000000E2   F7A8               BRCC    ??local_psm_18
   1634                                                                  {
   1635                                                                  err_psm=1;
   1636                                                                  break;
   1637                                                                  }
   1638                                                  sost_psm=2; 
   \   000000E4   E012               LDI     R17, 2
   \   000000E6   01FD               MOVW    R31:R30, R27:R26
   \   000000E8   AB11               STD     Z+49, R17
   1639                                                  err_psm=0;
   \   000000EA   A650               STD     Z+40, R5
   1640                                                  tekpsm=c;   
   \   000000EC   A6A3               STD     Z+43, R10
   1641                                                  break;                
   \   000000EE   C11F               RJMP    ??local_psm_20
   1642                                                 } 
   1643                            break;                      
   1644                        }         // end case 1
   1645                        
   1646                     case 2:               // переход на  коррекцию
   1647                               {                                    
   1648                               
   1649                               
   1650                                                                
   1651                                if (test_nenull()==0)  {err_psm=1; sost_psm=1;break;} 
   \                     ??local_psm_7:
   \   000000F0   ....               RCALL   ?Subroutine99
   \                     ??CrossCallReturnLabel_186:
   \   000000F2   F409               BRNE    $+2+2
   \   000000F4   CF90               RJMP    ??local_psm_1
   1652                                timer_psm=(unsigned long int)c1_byte.mb[2*2]*60;
   \   000000F6   01FC               MOVW    R31:R30, R25:R24
   \   000000F8   8144               LDD     R20, Z+4
   \   000000FA   E050               LDI     R21, 0
   \   000000FC   ....               RCALL   ?Subroutine46
   \                     ??CrossCallReturnLabel_235:
   \   000000FE   E020               LDI     R18, 0
   \   00000100   E030               LDI     R19, 0
   \   00000102   ........           CALL    ?L_EC_MUL_L03
   \   00000106   ....               RCALL   ?Subroutine67
   1653                                index=6*2+( tekpsm-1)*2;
   1654                                                   t_i=  c1_byte.mb[index] + c1_byte.mb[index+1]*256;
   1655                                                  
   1656                                                   
   1657                                                 if ( t_i==0) 
   \                     ??CrossCallReturnLabel_251:
   \   00000108   ....               RCALL   ?Subroutine25
   \                     ??CrossCallReturnLabel_255:
   \   0000010A   F441               BRNE    ??local_psm_21
   1658                                                              {
   1659                                                             if  ( c1_byte.mb[5*2]==0) {err_psm=1;sost_psm=1;break;}  // ручной  
   \   0000010C   20FF               TST     R15
   \   0000010E   F409               BRNE    $+2+2
   \   00000110   CF82               RJMP    ??local_psm_1
   1660                                                              else {cnt_try_ys=3;sost_psm=5;break;}   // автомат
   \                     ??local_psm_22:
   \   00000112   E003               LDI     R16, 3
   \   00000114   01FD               MOVW    R31:R30, R27:R26
   \                     ??local_psm_23:
   \   00000116   A702               STD     Z+42, R16
   \   00000118   E005               LDI     R16, 5
   \   0000011A   C108               RJMP    ??local_psm_19
   1661                                                              }
   1662                                                 
   1663                                                 
   1664                                sost_psm=3;
   \                     ??local_psm_21:
   \   0000011C   E003               LDI     R16, 3
   \                     ??local_psm_24:
   \   0000011E   01FD               MOVW    R31:R30, R27:R26
   \   00000120   C105               RJMP    ??local_psm_19
   1665                               break;
   1666                               }   
   1667                     case 3:               // ожидание коррекции
   1668                               {     
   1669                                if (timer_psm==0) 
   \                     ??local_psm_8:
   \   00000122   ....               RCALL   ?Subroutine70
   \                     ??CrossCallReturnLabel_102:
   \   00000124   F009               BREQ    $+2+2
   \   00000126   C077               RJMP    ??local_psm_25
   1670                                                  {
   1671                                                   sost_psm=4;  // постановка на замер  
   \   00000128   E004               LDI     R16, 4
   \   0000012A   AB01               STD     Z+49, R16
   1672                                                   
   1673                                                   start_tii_gzu=arr_tii_32[c1_byte.mb[4*2] ];// запомнить значение тии
   \   0000012C   01FC               MOVW    R31:R30, R25:R24
   \   0000012E   8500               LDD     R16, Z+8
   \   00000130   E014               LDI     R17, 4
   \   00000132   9F01               MUL     R16, R17
   \   00000134   01F0               MOVW    R31:R30, R1:R0
   \   00000136   ....               SUBI    R30, LOW((-(arr_tii_32) & 0xFFFF))
   \   00000138   ....               SBCI    R31, (-(arr_tii_32) & 0xFFFF) >> 8
   \   0000013A   ....               RCALL   ?Subroutine26
   \                     ??CrossCallReturnLabel_249:
   \   0000013C   8B00               STD     Z+16, R16
   \   0000013E   8B11               STD     Z+17, R17
   \   00000140   8B22               STD     Z+18, R18
   \   00000142   8B33               STD     Z+19, R19
   1674                                                  
   1675          ////////////////////////
   1676          RdFromFleshToArr(STRUCT_US + modbus_mem1[AD_IND_GZU]*12,(unsigned char *)&zapis[0],12);                                         
   \   00000144   019E               MOVW    R19:R18, R29:R28
   \   00000146   5F2C               SUBI    R18, 252
   \   00000148   4F3F               SBCI    R19, 255
   \   0000014A   ....               LDI     R30, LOW((modbus_mem1 + 62))
   \   0000014C   ....               LDI     R31, HIGH((modbus_mem1 + 62))
   \   0000014E   8140               LD      R20, Z
   \   00000150   8151               LDD     R21, Z+1
   \   00000152   E00C               LDI     R16, 12
   \   00000154   E010               LDI     R17, 0
   \   00000156   ........           CALL    ?S_EC_MUL_L02
   \   0000015A   5E10               SUBI    R17, 224
   \   0000015C   E04C               LDI     R20, 12
   \   0000015E   E050               LDI     R21, 0
   \   00000160   ....               RCALL   ?Subroutine39
   1677           if((*(int*)&zapis[10])==crc_sum(&zapis[0],10))                                          
   \                     ??CrossCallReturnLabel_46:
   \   00000162   844E               LDD     R4, Y+14
   \   00000164   845F               LDD     R5, Y+15
   \   00000166   E02A               LDI     R18, 10
   \   00000168   ....               RCALL   ??Subroutine42_0
   \                     ??CrossCallReturnLabel_260:
   \   0000016A   1640               CP      R4, R16
   \   0000016C   0651               CPC     R5, R17
   \   0000016E   F5E1               BRNE    ??local_psm_26
   1678          
   1679                      
   1680                                                  {     
   1681                                                     tik.st[0]=zapis[0];
   \   00000170   ....               RCALL   ?Subroutine28
   1682                                                     tik.st[1]=zapis[1];
   1683                                                     tik.st[2]=zapis[2];
   1684                                                     tik.st[3]=zapis[3];
   1685                                                     if ( zapis[8] !=tekpsm ) goto new_zamer;
   \                     ??CrossCallReturnLabel_33:
   \   00000172   01FD               MOVW    R31:R30, R27:R26
   \   00000174   A503               LDD     R16, Z+43
   \   00000176   851C               LDD     R17, Y+12
   \   00000178   1710               CP      R17, R16
   \   0000017A   F5B1               BRNE    ??local_psm_26
   1686                                                    if( unix >tik.unix) goto new_zamer;
   \   0000017C   8148               LD      R20, Y
   \   0000017E   8159               LDD     R21, Y+1
   \   00000180   816A               LDD     R22, Y+2
   \   00000182   817B               LDD     R23, Y+3
   \   00000184   ....               RCALL   ?Subroutine23
   \                     ??CrossCallReturnLabel_214:
   \   00000186   1540               CP      R20, R0
   \   00000188   0551               CPC     R21, R1
   \   0000018A   0562               CPC     R22, R2
   \   0000018C   0573               CPC     R23, R3
   \   0000018E   F160               BRCS    ??local_psm_26
   1687                                                    index=6*2+( tekpsm-1)*2;
   \   00000190   0F00               LSL     R16
   \   00000192   5F06               SUBI    R16, 246
   1688                                                    t_i=  c1_byte.mb[index] + c1_byte.mb[index+1]*256; 
   1689                                                    if ( (tik.unix-unix) > ((unsigned long int)t_i*60) ) goto new_zamer; //..
   \   00000194   2F20               MOV     R18, R16
   \   00000196   E030               LDI     R19, 0
   \   00000198   018C               MOVW    R17:R16, R25:R24
   \   0000019A   0F02               ADD     R16, R18
   \   0000019C   1F13               ADC     R17, R19
   \   0000019E   012A               MOVW    R5:R4, R21:R20
   \   000001A0   013B               MOVW    R7:R6, R23:R22
   \   000001A2   1840               SUB     R4, R0
   \   000001A4   0851               SBC     R5, R1
   \   000001A6   0862               SBC     R6, R2
   \   000001A8   0873               SBC     R7, R3
   \   000001AA   01F8               MOVW    R31:R30, R17:R16
   \   000001AC   8140               LD      R20, Z
   \   000001AE   8151               LDD     R21, Z+1
   \   000001B0   ....               RCALL   ?Subroutine46
   \                     ??CrossCallReturnLabel_236:
   \   000001B2   ....               RCALL   ?Subroutine14
   \                     ??CrossCallReturnLabel_281:
   \   000001B4   1504               CP      R16, R4
   \   000001B6   0515               CPC     R17, R5
   \   000001B8   0526               CPC     R18, R6
   \   000001BA   0537               CPC     R19, R7
   \   000001BC   F0A8               BRCS    ??local_psm_26
   1690                                                    timer_psm= (tik.unix-unix);
   \   000001BE   924D               ST      X+, R4
   \   000001C0   925D               ST      X+, R5
   \   000001C2   926D               ST      X+, R6
   \   000001C4   927C               ST      X, R7
   \   000001C6   9713               SBIW    R27:R26, 3
   1691                                                    delta_ys=zapis[6]+(zapis[7]*256); // то что уже намеряно
   \   000001C8   850A               LDD     R16, Y+10
   \   000001CA   851B               LDD     R17, Y+11
   \   000001CC   2F21               MOV     R18, R17
   \   000001CE   0F22               LSL     R18
   \   000001D0   0B22               SBC     R18, R18
   \   000001D2   01FD               MOVW    R31:R30, R27:R26
   \   000001D4   8B04               STD     Z+20, R16
   \   000001D6   8B15               STD     Z+21, R17
   \   000001D8   8B26               STD     Z+22, R18
   \   000001DA   8B27               STD     Z+23, R18
   1692                                                    unix_psm=tik.unix; // время конец замера из архива
   \   000001DC   ....               RCALL   ?Subroutine90
   \                     ??CrossCallReturnLabel_162:
   \   000001DE   8304               STD     Z+4, R16
   \   000001E0   8315               STD     Z+5, R17
   \   000001E2   8326               STD     Z+6, R18
   \   000001E4   8337               STD     Z+7, R19
   \   000001E6   C017               RJMP    ??local_psm_25
   1693                                                    
   1694             
   1695                                                  } 
   1696                                 else        // перезаписать п о новой 
   1697                                                   {  
   1698                                        new_zamer:
   1699                                                    index=6*2+( tekpsm-1)*2;
   \                     ??local_psm_26:
   \   000001E8   ....               RCALL   ?Subroutine58
   1700                                                    t_i=  c1_byte.mb[index] + c1_byte.mb[index+1]*256;
   \                     ??CrossCallReturnLabel_84:
   \   000001EA   E010               LDI     R17, 0
   \   000001EC   0F80               ADD     R24, R16
   \   000001EE   1F91               ADC     R25, R17
   \   000001F0   01FC               MOVW    R31:R30, R25:R24
   \   000001F2   8140               LD      R20, Z
   \   000001F4   E030               LDI     R19, 0
   \   000001F6   8151               LDD     R21, Z+1
   1701                                                    timer_psm= (unsigned long int)t_i*60;
   \   000001F8   E060               LDI     R22, 0
   \   000001FA   E070               LDI     R23, 0
   \   000001FC   E30C               LDI     R16, 60
   \   000001FE   ....               RCALL   ?Subroutine14
   \                     ??CrossCallReturnLabel_282:
   \   00000200   ....               RCALL   ?Subroutine67
   1702                                                    unix_psm=unix+((unsigned long int)t_i*60); // время конец замера   //..
   \                     ??CrossCallReturnLabel_252:
   \   00000202   ....               RCALL   ?Subroutine21
   \                     ??CrossCallReturnLabel_202:
   \   00000204   ....               RCALL   ?Subroutine105
   \                     ??CrossCallReturnLabel_207:
   \   00000206   01FD               MOVW    R31:R30, R27:R26
   \   00000208   ....               RCALL   ?Subroutine68
   1703                                                    bit_zamer_psm=0;
   \                     ??CrossCallReturnLabel_97:
   \   0000020A   E000               LDI     R16, 0
   \   0000020C   A302               STD     Z+34, R16
   1704                                                    delta_ys=0;
   \   0000020E   8B04               STD     Z+20, R16
   \   00000210   8B05               STD     Z+21, R16
   \   00000212   8B06               STD     Z+22, R16
   \   00000214   8B07               STD     Z+23, R16
   1705                                                  
   1706                                                   } 
   1707          ////////////////////////                                         
   1708                                                   
   1709                                                  
   1710                                                  }
   1711                                if( ((modbus_mem1[AD_TS]>> 4) &0xf) != tekpsm ) sost_psm=1;
   \                     ??local_psm_25:
   \   00000216   ....               RCALL   ?Subroutine50
   \                     ??CrossCallReturnLabel_60:
   \   00000218   F409               BRNE    $+2+2
   \   0000021A   C089               RJMP    ??local_psm_20
   \                     ??local_psm_2:
   \   0000021C   E001               LDI     R16, 1
   \   0000021E   CF7F               RJMP    ??local_psm_24
   1712                               break;
   1713                               }       
   1714                        
   1715                     case 4:        // замер
   1716                              {                   
   1717                              if ( bit_zamer_psm==1)  store_ys_minut();
   \                     ??local_psm_9:
   \   00000220   A102               LDD     R16, Z+34
   \   00000222   3001               CPI     R16, 1
   \   00000224   F409               BRNE    ??local_psm_27
   \   00000226   ....               RCALL   store_ys_minut
   1718                              if ( bit_level_psm==1)  
   \                     ??local_psm_27:
   \   00000228   01FD               MOVW    R31:R30, R27:R26
   \   0000022A   A106               LDD     R16, Z+38
   \   0000022C   3001               CPI     R16, 1
   \   0000022E   F411               BRNE    ??local_psm_28
   1719                                                         {
   1720                                                         bit_level_psm=0; 
   \   00000230   A256               STD     Z+38, R5
   \   00000232   CFF4               RJMP    ??local_psm_2
   1721                                                   // store_ys();            // 26 06 06 начать замер по новой
   1722                                                    sost_psm=1; break;
   1723                                                         } 
   1724                              if (unix >= unix_psm)        
   \                     ??local_psm_28:
   \   00000234   ....               LDI     R30, LOW(unix)
   \   00000236   ....               LDI     R31, (unix) >> 8
   \   00000238   ....               RCALL   ?Subroutine26
   \                     ??CrossCallReturnLabel_250:
   \   0000023A   ....               RCALL   ?Subroutine72
   \                     ??CrossCallReturnLabel_113:
   \   0000023C   ....               RCALL   ?Subroutine108
   \                     ??CrossCallReturnLabel_225:
   \   0000023E   F098               BRCS    ??local_psm_29
   1725                               //if (timer_psm==0)
   1726                                                    {  
   1727                                                    
   1728                                                    store_ys();
   \   00000240   ....               RCALL   ?Subroutine100
   1729                                                    if ( c1_byte.mb[5*2]==0) {sost_psm=1; break;}
   \                     ??CrossCallReturnLabel_190:
   \   00000242   01FC               MOVW    R31:R30, R25:R24
   \   00000244   8502               LDD     R16, Z+10
   \   00000246   2300               TST     R16
   \   00000248   F349               BREQ    ??local_psm_2
   1730                                                    else 
   1731                                                         {
   1732                               // если это единственный разрешенный ус                   
   1733                                                                 c=test_nenull();
   \   0000024A   ....               RCALL   ?Subroutine99
   1734                                                                
   1735                                                               if (c==0)  { sost_psm=1;break;}   // нет ненулевых усов
   \                     ??CrossCallReturnLabel_187:
   \   0000024C   F339               BREQ    ??local_psm_2
   1736                                                               if (c==1)
   \   0000024E   3001               CPI     R16, 1
   \   00000250   F421               BRNE    ??local_psm_30
   1737                                                                           {
   1738                                                                         
   1739                                                                             // тот ус на котором я стою единственный
   1740                                                                      index=6*2+(tekpsm-1)*2;
   \   00000252   ....               RCALL   ?Subroutine58
   1741                                                   t_i=  c1_byte.mb[index] + c1_byte.mb[index+1]*256;
   1742                                                                       if ( t_i !=0) { sost_psm=1;break;}
   \                     ??CrossCallReturnLabel_85:
   \   00000254   0F80               ADD     R24, R16
   \   00000256   ....               RCALL   ??Subroutine25_0
   \                     ??CrossCallReturnLabel_256:
   \   00000258   F709               BRNE    ??local_psm_2
   1743                                                                                   
   1744                                                                       
   1745                                                                           }           
   1746                                                                 
   1747                                                                
   1748                                                          if (global_try==0) { err_psm=1;sost_psm=1;break;}
   \                     ??local_psm_30:
   \   0000025A   01FD               MOVW    R31:R30, R27:R26
   \   0000025C   A900               LDD     R16, Z+48
   \   0000025E   2300               TST     R16
   \   00000260   F009               BREQ    $+2+2
   \   00000262   CF57               RJMP    ??local_psm_22
   \   00000264   CED8               RJMP    ??local_psm_1
   1749                                                         cnt_try_ys=3;                                                     
   1750                                                         sost_psm=5; 
   1751                                                           break;
   1752                                                         } // переключится
   1753                                                    }
   1754                                if( ((modbus_mem1[AD_TS]>> 4) &0xf) != tekpsm ) {global_try=3;store_ys();sost_psm=1;}
   \                     ??local_psm_29:
   \   00000266   ....               RCALL   ?Subroutine50
   \                     ??CrossCallReturnLabel_61:
   \   00000268   F409               BRNE    $+2+2
   \   0000026A   C061               RJMP    ??local_psm_20
   \   0000026C   E003               LDI     R16, 3
   \   0000026E   AB00               STD     Z+48, R16
   \   00000270   ....               RCALL   ?Subroutine100
   \                     ??CrossCallReturnLabel_189:
   \   00000272   CFD4               RJMP    ??local_psm_2
   1755                              break;
   1756                              }   
   1757                     case 5:             // импульс ту
   1758                              {
   1759          ////////////////////                              
   1760                         c=test_nenull();
   \                     ??local_psm_10:
   \   00000274   ....               RCALL   ?Subroutine99
   1761                                                                
   1762                                                               if (c==0)  { sost_psm=1;break;}   // нет ненулевых усов
   \                     ??CrossCallReturnLabel_188:
   \   00000276   F291               BREQ    ??local_psm_2
   1763                                                               if (c==1)
   \   00000278   3001               CPI     R16, 1
   \   0000027A   F411               BRNE    ??local_psm_31
   1764                                                                           {
   1765                                                                         
   1766                                                                             // тот ус на котором я стою единственный
   1767                                                                      index=6*2+(tekpsm-1)*2;
   1768                                                   t_i=  c1_byte.mb[index] + c1_byte.mb[index+1]*256;
   1769                                                                       if ( t_i !=0) { sost_psm=1;break;}
   \   0000027C   ....               RCALL   ?Subroutine25
   \                     ??CrossCallReturnLabel_257:
   \   0000027E   F671               BRNE    ??local_psm_2
   1770                                                                                   
   1771                                                                       
   1772                                                                           }    
   1773          ////////////////////                  
   1774                              if (global_try==0) { err_psm=1;sost_psm=1;break;} 
   \                     ??local_psm_31:
   \   00000280   20EE               TST     R14
   \   00000282   F409               BRNE    $+2+2
   \   00000284   CEC8               RJMP    ??local_psm_1
   1775                              pred_mask=tekpsm;
   \   00000286   01FD               MOVW    R31:R30, R27:R26
   \   00000288   ....               RCALL   ?Subroutine101
   1776                              TU1_ON;
   1777                              timer_psm=(unsigned long int)c1_byte.mb[3*2]; 
   1778                              sost_psm=6;
   \                     ??CrossCallReturnLabel_226:
   \   0000028A   E006               LDI     R16, 6
   \   0000028C   C04F               RJMP    ??local_psm_19
   1779                              break;
   1780                              }   
   1781                        
   1782                     case 6:
   1783                             {     
   1784                              if (timer_psm==0) 
   \                     ??local_psm_11:
   \   0000028E   ....               RCALL   ?Subroutine70
   \                     ??CrossCallReturnLabel_103:
   \   00000290   F009               BREQ    $+2+2
   \   00000292   C04D               RJMP    ??local_psm_20
   1785                                              { 
   1786                                              TU1_OFF; 
   \   00000294   9814               CBI     0x02, 0x04
   1787                                                        if ( c1_byte.mb[5*2]==0) {sost_psm=1;break;}
   \   00000296   20FF               TST     R15
   \   00000298   F209               BREQ    ??local_psm_2
   1788                                               
   1789                                               timer_psm=120;   // 2 минуты ждем
   \   0000029A   ....               RCALL   ?Subroutine66
   1790                                               sost_psm=7; 
   \                     ??CrossCallReturnLabel_228:
   \   0000029C   E007               LDI     R16, 7
   \   0000029E   C046               RJMP    ??local_psm_19
   1791                                              }
   1792                             break;
   1793                             }
   1794                    case 7:       // ожидание 2 минуты
   1795                              {     
   1796                               if (timer_psm==0) 
   \                     ??local_psm_12:
   \   000002A0   ....               RCALL   ?Subroutine70
   \                     ??CrossCallReturnLabel_104:
   \   000002A2   F009               BREQ    $+2+2
   \   000002A4   C044               RJMP    ??local_psm_20
   1797                                                  {
   1798                                                  if( ((modbus_mem1[AD_TS]>> 4) &0xf) == pred_mask )
   \   000002A6   14AC               CP      R10, R12
   \   000002A8   F421               BRNE    ??local_psm_32
   1799                                                                          {
   1800                                                                             timer_psm=60;
   \   000002AA   E30C               LDI     R16, 60
   \   000002AC   ....               RCALL   ??Subroutine66_0
   1801                                                                             sost_psm=8;  
   \                     ??CrossCallReturnLabel_229:
   \   000002AE   E008               LDI     R16, 8
   \   000002B0   C03D               RJMP    ??local_psm_19
   1802                                                                             break;
   1803                                                                          } 
   1804                                                                          global_try=3;
   \                     ??local_psm_32:
   \   000002B2   E003               LDI     R16, 3
   \   000002B4   AB00               STD     Z+48, R16
   1805                                                     if (test_switch_psm()==1)
   \   000002B6   ....               RCALL   test_switch_psm
   \   000002B8   3001               CPI     R16, 1
   \   000002BA   F4E1               BRNE    ??local_psm_33
   1806                                                                      { 
   1807                                                                      err_switch=0;
   \                     ??local_psm_34:
   \   000002BC   01FD               MOVW    R31:R30, R27:R26
   \   000002BE   A651               STD     Z+41, R5
   \   000002C0   CFAD               RJMP    ??local_psm_2
   1808                                                                      sost_psm=1;
   1809                                                                      break; 
   1810                                                                      }            
   1811                                                                     
   1812                                                     err_switch=1;                 
   1813                                                     sost_psm=1;                     
   1814                                                     break;
   1815                                                  }
   1816                              break;
   1817                              }
   1818                     
   1819                   case 8:     // ожидание 60 секунд
   1820                          {     
   1821                           if (timer_psm==0) 
   \                     ??local_psm_13:
   \   000002C2   ....               RCALL   ?Subroutine70
   \                     ??CrossCallReturnLabel_105:
   \   000002C4   F5A1               BRNE    ??local_psm_20
   1822                                                  {
   1823                                                   if (test_switch_psm()==1)
   \   000002C6   ....               RCALL   test_switch_psm
   \   000002C8   3001               CPI     R16, 1
   \   000002CA   F3C1               BREQ    ??local_psm_34
   1824                                                                      { 
   1825                                                                      err_switch=0;
   1826                                                                      sost_psm=1;
   1827                                                                      break; 
   1828                                                                      } 
   1829                                                                      if( ((modbus_mem1[AD_TS]>> 4) &0xf) == pred_mask )
   \   000002CC   14AC               CP      R10, R12
   \   000002CE   F479               BRNE    ??local_psm_35
   1830                                                                           { 
   1831                                                                             if (cnt_try_ys ==0) 
   \   000002D0   01FD               MOVW    R31:R30, R27:R26
   \   000002D2   A502               LDD     R16, Z+42
   \   000002D4   2300               TST     R16
   \   000002D6   F449               BRNE    ??local_psm_36
   1832                                                                                         {
   1833                                                                                        err_switch=1;                 
   \   000002D8   E001               LDI     R16, 1
   \   000002DA   A701               STD     Z+41, R16
   1834                                                                                        sost_psm=1;
   \   000002DC   AB01               STD     Z+49, R16
   1835                                                                                        if (global_try !=0) global_try--;
   \   000002DE   20EE               TST     R14
   \   000002E0   F131               BREQ    ??local_psm_20
   \   000002E2   A900               LDD     R16, Z+48
   \   000002E4   950A               DEC     R16
   \   000002E6   AB00               STD     Z+48, R16
   \   000002E8   C022               RJMP    ??local_psm_20
   1836                                                                                        break;    
   1837                                                                                          }
   1838                                                                      else cnt_try_ys--;    
   \                     ??local_psm_36:
   \   000002EA   950A               DEC     R16
   \   000002EC   CF14               RJMP    ??local_psm_23
   1839                                                                     sost_psm=5;   // попытаться переключиться 3 раза      
   1840                                                                      break;                          
   1841                                                                            }
   1842                                        // переключился неправильно                                    
   1843                                                      global_try=3;
   \                     ??local_psm_35:
   \   000002EE   E003               LDI     R16, 3
   \   000002F0   01FD               MOVW    R31:R30, R27:R26
   \   000002F2   AB00               STD     Z+48, R16
   1844                                                      err_switch=1;
   1845                                                      sost_psm=1;
   1846                                                      break;                      
   1847                                                   
   1848                                                   
   1849                                                  }
   1850                          break;
   1851                          }
   \                     ??local_psm_33:
   \   000002F4   E001               LDI     R16, 1
   \   000002F6   01FD               MOVW    R31:R30, R27:R26
   \   000002F8   A701               STD     Z+41, R16
   \   000002FA   CF90               RJMP    ??local_psm_2
   1852          
   1853          ////////////////////////////////////////////////
   1854          // для преключения до заданного уса
   1855          case 9:
   1856                   { 
   1857                   pred_mask=tekpsm;
   \                     ??local_psm_14:
   \   000002FC   ....               RCALL   ?Subroutine101
   1858                              TU1_ON;
   1859                              timer_psm=(unsigned long int)c1_byte.mb[3*2]; 
   1860                              sost_psm=10; 
   \                     ??CrossCallReturnLabel_227:
   \   000002FE   E00A               LDI     R16, 10
   \   00000300   C015               RJMP    ??local_psm_19
   1861                   break;
   1862                   }  
   1863          case 10:
   1864                   {
   1865                   if (timer_psm==0) 
   \                     ??local_psm_15:
   \   00000302   ....               RCALL   ?Subroutine70
   \                     ??CrossCallReturnLabel_106:
   \   00000304   F4A1               BRNE    ??local_psm_20
   1866                                              {
   1867                                               TU1_OFF;
   \   00000306   9814               CBI     0x02, 0x04
   1868                                               timer_psm=120;
   \   00000308   ....               RCALL   ?Subroutine66
   1869                                               sost_psm=11; 
   \                     ??CrossCallReturnLabel_230:
   \   0000030A   E00B               LDI     R16, 11
   \   0000030C   C00F               RJMP    ??local_psm_19
   1870                                              }
   1871                   break;
   1872                   } 
   1873          case 11:
   1874                   { 
   1875                   if (timer_psm==0) 
   \                     ??local_psm_16:
   \   0000030E   ....               RCALL   ?Subroutine70
   \                     ??CrossCallReturnLabel_107:
   \   00000310   F471               BRNE    ??local_psm_20
   1876                                                  { 
   1877                                                 tekpsm=((modbus_mem1[AD_TS]>> 4) &0xf); 
   \   00000312   A6A3               STD     Z+43, R10
   1878                                                 if ( tekpsm==fin_ys) {sost_psm=1;err_switch=0;break;}
   \   00000314   A505               LDD     R16, Z+45
   \   00000316   16A0               CP      R10, R16
   \   00000318   F421               BRNE    ??local_psm_37
   \   0000031A   E001               LDI     R16, 1
   \   0000031C   AB01               STD     Z+49, R16
   \   0000031E   A651               STD     Z+41, R5
   \   00000320   C006               RJMP    ??local_psm_20
   1879                                                 count_sboj--;
   \                     ??local_psm_37:
   \   00000322   A506               LDD     R16, Z+46
   \   00000324   950A               DEC     R16
   \   00000326   A706               STD     Z+46, R16
   1880                                                 
   1881                                                 
   1882                                                 if (  count_sboj==0 )
   \   00000328   F329               BREQ    ??local_psm_33
   1883                                                
   1884                                                                      { 
   1885                                                                      err_switch=1;
   1886                                                                      sost_psm=1;
   1887                                                                      break; 
   1888                                                                      }
   1889                                                                    
   1890                                                     sost_psm=9;               
   \                     ??local_psm_5:
   \   0000032A   E009               LDI     R16, 9
   \                     ??local_psm_19:
   \   0000032C   AB01               STD     Z+49, R16
   1891                                                     break;
   \                     ??local_psm_20:
   \   0000032E   9662               ADIW    R29:R28, 18
   \   00000330   E1E0               LDI     R30, 16
   \   00000332   ........           JMP     ?EPILOGUE_B16_L09
   1892                                                  } 
   1893                   break;
   1894                   }                                
   1895             default: {sost_psm=1;break;}
   1896             }                     
   1897          }    

   \                                 In segment FARCODE, align 2, keep-with-next
   \                     ?Subroutine101:
   \   00000000   A6D4               STD     Z+44, R13
   \   00000002   9A14               SBI     0x02, 0x04
   \   00000004   924D               ST      X+, R4
   \   00000006                      REQUIRE ?Subroutine109
   \   00000006                      ;               // Fall through to label ?Subroutine109

   \                                 In segment FARCODE, align 2, keep-with-next
   \                     ?Subroutine109:
   \   00000000   925D               ST      X+, R5
   \   00000002   925D               ST      X+, R5
   \   00000004   925C               ST      X, R5
   \   00000006   9508               RET

   \                                 In segment FARCODE, align 2, keep-with-next
   \                     ?Subroutine100:
   \   00000000   ....               RJMP    store_ys

   \                                 In segment FARCODE, align 2, keep-with-next
   \                     ?Subroutine99:
   \   00000000   ....               RCALL   test_nenull
   \   00000002   2300               TST     R16
   \   00000004   9508               RET

   \                                 In segment FARCODE, align 2, keep-with-next
   \                     ?Subroutine67:
   \   00000000   930D               ST      X+, R16
   \   00000002   931D               ST      X+, R17
   \   00000004   932D               ST      X+, R18
   \   00000006   933C               ST      X, R19
   \   00000008   ....               RJMP    ?Subroutine116

   \                                 In segment FARCODE, align 2, keep-with-next
   \                     ?Subroutine66:
   \   00000000   E708               LDI     R16, 120
   \                     ??Subroutine66_0:
   \   00000002   930D               ST      X+, R16
   \   00000004   ....               RJMP    ?Subroutine109

   \                                 In segment FARCODE, align 2, keep-with-next
   \                     ?Subroutine58:
   \   00000000   01FD               MOVW    R31:R30, R27:R26
   \   00000002   A503               LDD     R16, Z+43
   \   00000004   0F00               LSL     R16
   \   00000006   5F06               SUBI    R16, 246
   \   00000008   9508               RET

   \                                 In segment FARCODE, align 2, keep-with-next
   \                     ?Subroutine50:
   \   00000000   ....               LDI     R30, LOW(modbus_mem1)
   \   00000002   ....               LDI     R31, (modbus_mem1) >> 8
   \   00000004   A900               LDD     R16, Z+48
   \   00000006   9502               SWAP    R16
   \   00000008   700F               ANDI    R16, 0x0F
   \   0000000A   01FD               MOVW    R31:R30, R27:R26
   \   0000000C   A513               LDD     R17, Z+43
   \   0000000E   1701               CP      R16, R17
   \   00000010   9508               RET

   \                                 In segment FARCODE, align 2, keep-with-next
   \                     ?Subroutine46:
   \   00000000   E060               LDI     R22, 0
   \   00000002   E070               LDI     R23, 0
   \   00000004   E30C               LDI     R16, 60
   \   00000006   ....               RJMP    ?Subroutine112

   \                                 In segment FARCODE, align 2, keep-with-next
   \                     ?Subroutine26:
   \   00000000   8100               LD      R16, Z
   \   00000002   8111               LDD     R17, Z+1
   \   00000004   8122               LDD     R18, Z+2
   \   00000006   8133               LDD     R19, Z+3
   \   00000008   ....               RJMP    ?Subroutine115

   \                                 In segment FARCODE, align 2, keep-with-next
   \                     ?Subroutine25:
   \   00000000   0D8B               ADD     R24, R11
   \                     ??Subroutine25_0:
   \   00000002   1D95               ADC     R25, R5
   \   00000004   01FC               MOVW    R31:R30, R25:R24
   \   00000006   8100               LD      R16, Z
   \   00000008   8111               LDD     R17, Z+1
   \   0000000A                      REQUIRE ?Subroutine117
   \   0000000A                      ;               // Fall through to label ?Subroutine117

   \                                 In segment FARCODE, align 2, keep-with-next
   \                     ?Subroutine117:
   \   00000000   2B01               OR      R16, R17
   \   00000002   9508               RET

   \                                 In segment FARCODE, align 2, keep-with-next
   \                     ?Subroutine14:
   \   00000000   E020               LDI     R18, 0
   \   00000002   ....               RJMP    ?Subroutine123

   \                                 In segment FARCODE, align 2, keep-with-next
   \                     ?Subroutine28:
   \   00000000   810C               LDD     R16, Y+4
   \   00000002   8308               ST      Y, R16
   \   00000004   810D               LDD     R16, Y+5
   \   00000006   8309               STD     Y+1, R16
   \   00000008   810E               LDD     R16, Y+6
   \   0000000A   830A               STD     Y+2, R16
   \   0000000C   810F               LDD     R16, Y+7
   \   0000000E   830B               STD     Y+3, R16
   \   00000010   9508               RET

   \                                 In segment FARCODE, align 2, keep-with-next
   \                     ?Subroutine70:
   \   00000000   910D               LD      R16, X+
   \   00000002   911D               LD      R17, X+
   \   00000004   912D               LD      R18, X+
   \   00000006   913C               LD      R19, X
   \   00000008   9713               SBIW    R27:R26, 3
   \   0000000A   2B01               OR      R16, R17
   \   0000000C   2B02               OR      R16, R18
   \   0000000E   2B03               OR      R16, R19
   \   00000010   9508               RET
   1898          
   1899          
   1900          // процедуры ГЗУ 
   1901          
   1902          
   1903          
   1904          /////////////////////////////////////////////***********************
   1905          // пытаемся найти архивную запись с заданными параметрами в стеке архивов 

   \                                 In segment FARCODE, align 2, keep-with-next
   1906          char try_find_arhiv(unsigned long int matrix,char m)  
   \                     try_find_arhiv:
   1907          {
   \   00000000   ........           CALL    ?PROLOGUE11_L09
   \   00000004                      REQUIRE ?Register_R4_is_cg_reg
   \   00000004                      REQUIRE ?Register_R5_is_cg_reg
   \   00000004                      REQUIRE ?Register_R6_is_cg_reg
   \   00000004                      REQUIRE ?Register_R7_is_cg_reg
   \   00000004                      REQUIRE ?Register_R10_is_cg_reg
   \   00000004   9762               SBIW    R29:R28, 18
   \   00000006   01C8               MOVW    R25:R24, R17:R16
   \   00000008   01D9               MOVW    R27:R26, R19:R18
   \   0000000A   2EA4               MOV     R10, R20
   1908            
   1909           unsigned char tek_ind,i;
   1910            union
   1911             {     
   1912             unsigned long int unix;
   1913             char st[4]; 
   1914             } tik;
   1915            
   1916            unsigned char zapiska[14];
   1917             
   1918              tek_ind=modbus_mem1[AD_IND_DNS]; // текущий индекс архива
   \   0000000C   9040....           LDS     R4, (modbus_mem1 + 64)
   1919              if(tek_ind==0) tek_ind=99; // берем предыдущий
   \   00000010   ....               RCALL   ?Subroutine102
   1920              else tek_ind--;
   1921              
   1922              for (i=0; i < 16;i++) {
   \                     ??CrossCallReturnLabel_192:
   \   00000012   2455               CLR     R5
   1923                                 /*
   1924                                 p_sys1=( char *) & zapiska[0];// point to arr zapis
   1925                                 sys1= STRUCT_TII_HEAP + (int)tek_ind*14;
   1926                                 
   1927                                 sys2=12;  
   1928                                 sys3=sys1+12; 
   1929                        
   1930                                 w_result(22);
   1931                                 */
   1932                
   1933                                 RdFromFleshToArr(STRUCT_TII_HEAP + (int)tek_ind*14,&zapiska[0],14); 
   \                     ??try_find_arhiv_0:
   \   00000014   E050               LDI     R21, 0
   \   00000016   019E               MOVW    R19:R18, R29:R28
   \   00000018   5F2C               SUBI    R18, 252
   \   0000001A   4F3F               SBCI    R19, 255
   \   0000001C   2D44               MOV     R20, R4
   \   0000001E   ....               RCALL   ?Subroutine36
   \                     ??CrossCallReturnLabel_40:
   \   00000020   E04E               LDI     R20, 14
   \   00000022   ....               RCALL   ?Subroutine39
   1934                                 if((*(int*)&zapiska[12])==crc_sum(&zapiska[0],12))
   \                     ??CrossCallReturnLabel_45:
   \   00000024   8868               LDD     R6, Y+16
   \   00000026   8879               LDD     R7, Y+17
   \   00000028   ....               RCALL   ?Subroutine42
   \                     ??CrossCallReturnLabel_261:
   \   0000002A   1660               CP      R6, R16
   \   0000002C   0671               CPC     R7, R17
   \   0000002E   F461               BRNE    ??try_find_arhiv_1
   1935                                 // if (ret_cod==0)
   1936                                                  {     
   1937                                                  tik.st[0]=zapiska[0];
   \   00000030   ....               RCALL   ?Subroutine28
   1938                                                    tik.st[1]=zapiska[1];
   1939                                                     tik.st[2]=zapiska[2];
   1940                                                     tik.st[3]=zapiska[3];
   1941                                                
   1942                                                   if( ( matrix== tik.unix) && (zapiska[10]==m) )  return(1); // есть такая запись !
   \                     ??CrossCallReturnLabel_34:
   \   00000032   ....               RCALL   ?Subroutine90
   \                     ??CrossCallReturnLabel_163:
   \   00000034   1780               CP      R24, R16
   \   00000036   0791               CPC     R25, R17
   \   00000038   07A2               CPC     R26, R18
   \   0000003A   07B3               CPC     R27, R19
   \   0000003C   F429               BRNE    ??try_find_arhiv_1
   \   0000003E   850E               LDD     R16, Y+14
   \   00000040   150A               CP      R16, R10
   \   00000042   F411               BRNE    ??try_find_arhiv_1
   \   00000044   E001               LDI     R16, 1
   \   00000046   C006               RJMP    ??try_find_arhiv_2
   1943                                                                                
   1944                                                  }  
   1945                                                      
   1946                                                     
   1947                                  if(tek_ind==0) tek_ind=99; // берем предыдущий
   \                     ??try_find_arhiv_1:
   \   00000048   ....               RCALL   ?Subroutine102
   1948                                  else tek_ind--;               
   1949                                 
   1950                                 
   1951                                 
   1952                                 
   1953                                 
   1954                                 } // цикл for
   \                     ??CrossCallReturnLabel_193:
   \   0000004A   9453               INC     R5
   \   0000004C   E100               LDI     R16, 16
   \   0000004E   1650               CP      R5, R16
   \   00000050   F308               BRCS    ??try_find_arhiv_0
   1955                                 
   1956                           return(0);  // не нашли записи
   \   00000052   E000               LDI     R16, 0
   \                     ??try_find_arhiv_2:
   \   00000054   9662               ADIW    R29:R28, 18
   \   00000056   E0EB               LDI     R30, 11
   \   00000058   ........           JMP     ?EPILOGUE_B11_L09
   1957          }

   \                                 In segment FARCODE, align 2, keep-with-next
   \                     ?Subroutine102:
   \   00000000   2044               TST     R4
   \   00000002   F419               BRNE    ??Subroutine102_0
   \   00000004   E603               LDI     R16, 99
   \   00000006   2E40               MOV     R4, R16
   \   00000008   9508               RET
   \                     ??Subroutine102_0:
   \   0000000A   944A               DEC     R4
   \   0000000C   9508               RET
   1958            
   1959          // попытаться сформировать архивы, которые не сформировались по причине пропадания питания, по последним минутным замерам  
   1960          //////////////////
   1961          // прочитать сначала архивы на предмет действительности

   \                                 In segment FARCODE, align 2, keep-with-next
   1962           char try_form_arhiv(char m)  // 
   \                     try_form_arhiv:
   1963           {
   \   00000000   ........           CALL    ?PROLOGUE5_L09
   \   00000004                      REQUIRE ?Register_R4_is_cg_reg
   \   00000004   9762               SBIW    R29:R28, 18
   \   00000006   2E40               MOV     R4, R16
   1964           
   1965          
   1966           
   1967            union
   1968             {     
   1969             unsigned long int unix;
   1970             char st[4]; 
   1971             } tik;
   1972            
   1973            unsigned char zapis[14],i;
   1974             
   1975                         /*
   1976                                 p_sys1=( char *) & zapis[0];// point to arr zapis
   1977                          sys1= STRUCT_TII + (int)m*0x100 + (int)arr_cnt_tii[m]*14;
   1978                                 
   1979                                 sys2=12;  
   1980                                 sys3=sys1+12; 
   1981                      // system_zap=22;   
   1982                                 w_result(22);
   1983                           */      
   1984                                 RdFromFleshToArr(STRUCT_TII+m*14,&zapis[0],14);
   \   00000008   ....               RCALL   ?Subroutine31
   1985                               
   1986                      //  если возвратило 0- значит правильно считали
   1987                      
   1988                                 // считали правидьно
   1989                                  if((*(int*)&zapis[12])==crc_sum(&zapis[0],12))   
   \                     ??CrossCallReturnLabel_38:
   \   0000000A   F459               BRNE    ??CrossCallReturnLabel_270
   1990                                // if (ret_cod==0)
   1991                                                  {     
   1992                                                  tik.st[0]=zapis[0];
   \   0000000C   ....               RCALL   ?Subroutine27
   1993                                                    tik.st[1]=zapis[1];
   1994                                                     tik.st[2]=zapis[2];
   1995                                                     tik.st[3]=zapis[3];
   1996                                                
   1997                                                    if( timer_tii[m] > tik.unix)   // это просроченный минутный архив
   \                     ??CrossCallReturnLabel_222:
   \   0000000E   F448               BRCC    ??CrossCallReturnLabel_270
   1998                                                                                {
   1999                                                                           if( try_find_arhiv(tik.unix,m)==1) return(1);   // пытаюсь найти в стеке архивов запись с этим временем
   \   00000010   2D44               MOV     R20, R4
   \   00000012   ....               RCALL   try_find_arhiv
   \   00000014   3001               CPI     R16, 1
   \   00000016   F411               BRNE    ??try_form_arhiv_0
   \   00000018   E001               LDI     R16, 1
   \   0000001A   C004               RJMP    ??try_form_arhiv_1
   2000                                                                                // не нашли архив,
   2001                                                                                // последний минутный архив записать в общую кучу
   2002                                                                                // это будет принудительно сфорировааный архив
   2003                                                                           /*
   2004                          p_sys1=( char *) & zapis[0];// point to arr zapis
   2005                          sys1= STRUCT_TII_HEAP + (int)arr_cnt_tii_heap*14;
   2006                       sys2=12;  
   2007                       sys3=sys1+12; 
   2008                      // system_zap=24;  
   2009                      w_result(24);
   2010                      
   2011                      arr_cnt_tii_heap++; 
   2012                      if ( arr_cnt_tii_heap >99) {arr_cnt_tii_heap=0;arr_cnt_tii_heap_modbus=99;}
   2013                                                   else arr_cnt_tii_heap_modbus=arr_cnt_tii_heap-1;
   2014                               
   2015                     
   2016                     
   2017                     write_ext_flesh( CNT_TII,arr_cnt_tii_heap);
   2018                     */
   2019                    ///////////////////////////
   2020                     WrArrayToFlesh(STRUCT_TII_HEAP + (int)modbus_mem1[AD_IND_DNS]*14,&zapis[0],14,0,0);      
   \                     ??try_form_arhiv_0:
   \   0000001C   ....               RCALL   ?Subroutine44
   \                     ??CrossCallReturnLabel_55:
   \   0000001E   5F2C               SUBI    R18, 252
   \   00000020   ....               RCALL   ?Subroutine3
   2021               modbus_mem1[AD_IND_DNS]++;
   2022               if ( modbus_mem1[AD_IND_DNS] >99 ) {modbus_mem1[AD_IND_DNS]=0;}          
   2023               i=modbus_mem1[AD_IND_DNS];     
   2024               WrArrayToFlesh(A_IND_DNS,0,1,1,i);
   2025                        
   2026                                                                                
   2027                                                                                
   2028                                                                                }
   2029                                                                                               
   2030                                                    
   2031                                                   
   2032                                                    }
   2033                               
   2034          return(0);                                                       
   \                     ??CrossCallReturnLabel_270:
   \   00000022   E000               LDI     R16, 0
   \                     ??try_form_arhiv_1:
   \   00000024   9662               ADIW    R29:R28, 18
   \   00000026   ....               RJMP    ?Subroutine121
   2035          /////////////////////////////////
   2036          }                  
   2037           //////////        
   2038           
   2039          ////////////////////////////////////////////////////////////////////////////////////////
   2040          

   \                                 In segment FARCODE, align 2, keep-with-next
   2041          void start_a(void)  //YES!!!!
   \                     start_a:
   2042          {  
   \   00000000   ....               RCALL   ?Subroutine95
   \                     ??CrossCallReturnLabel_179:
   \   00000002                      REQUIRE ?Register_R4_is_cg_reg
   \   00000002                      REQUIRE ?Register_R6_is_cg_reg
   \   00000002                      REQUIRE ?Register_R7_is_cg_reg
   2043          char m;       
   2044          
   2045          for (m=14; m < 16;m++) 
   \   00000002   E00E               LDI     R16, 14
   \   00000004   2E40               MOV     R4, R16
   2046                {
   2047                end_zamer(m); 
   \                     ??start_a_0:
   \   00000006   ....               RCALL   ?Subroutine77
   2048                start_ttii[m]=arr_tii_32[m]-read_arhiv_tii(m); // начать новый минутный заме   
   2049                try_form_arhiv(m); // пытаемся сформировать утерянные архивы
   2050               }
   \                     ??CrossCallReturnLabel_118:
   \   00000008   E100               LDI     R16, 16
   \   0000000A   1640               CP      R4, R16
   \   0000000C   F3E0               BRCS    ??start_a_0
   2051          //при старте все времена окончания замеров установить
   2052          
   2053          if(sel_modul==1)
   \   0000000E   ....               RCALL   ?Subroutine103
   \                     ??CrossCallReturnLabel_194:
   \   00000010   F431               BRNE    ??start_a_1
   2054            {
   2055              for (m=0; m < 5;m++) 
   \   00000012   2444               CLR     R4
   2056                {
   2057                end_zamer(m); 
   \                     ??start_a_2:
   \   00000014   ....               RCALL   ?Subroutine77
   2058                start_ttii[m]=arr_tii_32[m]-read_arhiv_tii(m); // начать новый минутный заме      
   2059                try_form_arhiv(m); // пытаемся сформировать утерянные архивы
   2060               }
   \                     ??CrossCallReturnLabel_119:
   \   00000016   E005               LDI     R16, 5
   \   00000018   1640               CP      R4, R16
   \   0000001A   F430               BRCC    ??start_a_3
   \   0000001C   CFFB               RJMP    ??start_a_2
   2061            }
   2062          else
   2063          {
   2064          for (m=0; m < 8;m++) 
   \                     ??start_a_1:
   \   0000001E   2444               CLR     R4
   2065                {
   2066                end_zamer(m); 
   \                     ??start_a_4:
   \   00000020   ....               RCALL   ?Subroutine77
   2067                start_ttii[m]=arr_tii_32[m]-read_arhiv_tii(m); // начать новый минутный заме 
   2068                try_form_arhiv(m); // пытаемся сформировать утерянные архивы
   2069               }
   \                     ??CrossCallReturnLabel_120:
   \   00000022   E008               LDI     R16, 8
   \   00000024   1640               CP      R4, R16
   \   00000026   F3E0               BRCS    ??start_a_4
   2070          }
   2071             lock_bit=0;  
   \                     ??start_a_3:
   \   00000028   E000               LDI     R16, 0
   \   0000002A   ....               RCALL   ??Subroutine84_0
   \                     ??CrossCallReturnLabel_143:
   \   0000002C   8F02               STD     Z+26, R16
   \   0000002E   8F03               STD     Z+27, R16
   2072          time_sutok=set_time_day_zamer(real_time.r_date,real_time.r_month,real_time.r_year);
   \   00000030   ....               RCALL   ?Subroutine17
   2073                if ( time_sutok <= unix) time_sutok+=86400; 
   2074                for (m=0; m < 2;m++) end_zamer_tit(m);
   \                     ??CrossCallReturnLabel_22:
   \   00000032   2444               CLR     R4
   \                     ??start_a_5:
   \   00000034   2D04               MOV     R16, R4
   \   00000036   ....               RCALL   ?Subroutine94
   \                     ??CrossCallReturnLabel_175:
   \   00000038   9443               INC     R4
   \   0000003A   E002               LDI     R16, 2
   \   0000003C   1640               CP      R4, R16
   \   0000003E   F3D0               BRCS    ??start_a_5
   2075          } 
   \   00000040   ....               RJMP    ?Subroutine126

   \                                 In segment FARCODE, align 2, keep-with-next
   \                     ?Subroutine77:
   \   00000000   2D04               MOV     R16, R4
   \   00000002   ....               RCALL   end_zamer
   \   00000004   E004               LDI     R16, 4
   \   00000006   9E40               MUL     R4, R16
   \   00000008   0130               MOVW    R7:R6, R1:R0
   \   0000000A   01F0               MOVW    R31:R30, R1:R0
   \   0000000C   ....               SUBI    R30, LOW((-(arr_tii_32) & 0xFFFF))
   \   0000000E   ....               SBCI    R31, (-(arr_tii_32) & 0xFFFF) >> 8
   \   00000010   8180               LD      R24, Z
   \   00000012   8191               LDD     R25, Z+1
   \   00000014   81A2               LDD     R26, Z+2
   \   00000016   81B3               LDD     R27, Z+3
   \   00000018   2D04               MOV     R16, R4
   \   0000001A   ....               RCALL   read_arhiv_tii
   \   0000001C   1B80               SUB     R24, R16
   \   0000001E   0B91               SBC     R25, R17
   \   00000020   0BA2               SBC     R26, R18
   \   00000022   0BB3               SBC     R27, R19
   \   00000024   01F3               MOVW    R31:R30, R7:R6
   \   00000026   ....               SUBI    R30, LOW((-(start_ttii) & 0xFFFF))
   \   00000028   ....               SBCI    R31, (-(start_ttii) & 0xFFFF) >> 8
   \   0000002A   8380               ST      Z, R24
   \   0000002C   8391               STD     Z+1, R25
   \   0000002E   83A2               STD     Z+2, R26
   \   00000030   83B3               STD     Z+3, R27
   \   00000032   2D04               MOV     R16, R4
   \   00000034   ....               RCALL   try_form_arhiv
   \   00000036   9443               INC     R4
   \   00000038   9508               RET

   \                                 In segment FARCODE, align 2, keep-with-next
   \                     ?Subroutine17:
   \   00000000   ....               LDI     R26, LOW(day_accum)
   \   00000002   ....               LDI     R27, (day_accum) >> 8
   \   00000004   ....               LDI     R30, LOW(real_time)
   \   00000006   ....               LDI     R31, (real_time) >> 8
   \   00000008   8126               LDD     R18, Z+6
   \   0000000A   8115               LDD     R17, Z+5
   \   0000000C   8104               LDD     R16, Z+4
   \   0000000E   ........           CALL    set_time_day_zamer
   \   00000012   01FD               MOVW    R31:R30, R27:R26
   \   00000014   8700               STD     Z+8, R16
   \   00000016   8711               STD     Z+9, R17
   \   00000018   8722               STD     Z+10, R18
   \   0000001A   8733               STD     Z+11, R19
   \   0000001C   ....               LDI     R30, LOW(unix)
   \   0000001E   ....               LDI     R31, (unix) >> 8
   \   00000020   8100               LD      R16, Z
   \   00000022   8111               LDD     R17, Z+1
   \   00000024   8122               LDD     R18, Z+2
   \   00000026   8133               LDD     R19, Z+3
   \   00000028   01FD               MOVW    R31:R30, R27:R26
   \   0000002A   8540               LDD     R20, Z+8
   \   0000002C   8551               LDD     R21, Z+9
   \   0000002E   8562               LDD     R22, Z+10
   \   00000030   8573               LDD     R23, Z+11
   \   00000032   1704               CP      R16, R20
   \   00000034   0715               CPC     R17, R21
   \   00000036   0726               CPC     R18, R22
   \   00000038   0737               CPC     R19, R23
   \   0000003A   F050               BRCS    ??Subroutine17_0
   \   0000003C   018A               MOVW    R17:R16, R21:R20
   \   0000003E   019B               MOVW    R19:R18, R23:R22
   \   00000040   5800               SUBI    R16, 128
   \   00000042   4A1E               SBCI    R17, 174
   \   00000044   4F2E               SBCI    R18, 254
   \   00000046   4F3F               SBCI    R19, 255
   \   00000048   8700               STD     Z+8, R16
   \   0000004A   8711               STD     Z+9, R17
   \   0000004C   8722               STD     Z+10, R18
   \   0000004E   8733               STD     Z+11, R19
   \                     ??Subroutine17_0:
   \   00000050   9508               RET

   \                                 In segment FARCODE, align 2, keep-with-next
   \                     ?Subroutine103:
   \   00000000   9100....           LDS     R16, sel_modul
   \   00000004   3001               CPI     R16, 1
   \   00000006   9508               RET
   2076          
   2077          
   2078          
   2079          

   \                                 In segment FARCODE, align 2, keep-with-next
   2080          void refresh_a(char m)
   \                     refresh_a:
   2081          { 
   \   00000000   ....               RCALL   ?Subroutine89
   \                     ??CrossCallReturnLabel_159:
   \   00000002   2F80               MOV     R24, R16
   2082            time_sutok=set_time_day_zamer(real_time.r_date,real_time.r_month,real_time.r_year);
   \   00000004   ....               RCALL   ?Subroutine17
   2083                if ( time_sutok <= unix) time_sutok+=86400;   
   2084            if ( m==0x20 ) { end_zamer_tit(0);return; }
   \                     ??CrossCallReturnLabel_23:
   \   00000006   3280               CPI     R24, 32
   \   00000008   F419               BRNE    ??refresh_a_0
   \   0000000A   E000               LDI     R16, 0
   \                     ??refresh_a_1:
   \   0000000C   ....               RCALL   ?Subroutine94
   \                     ??CrossCallReturnLabel_174:
   \   0000000E   C011               RJMP    ??CrossCallReturnLabel_28
   2085            if ( m==0x21 ) { end_zamer_tit(1);return; }
   \                     ??refresh_a_0:
   \   00000010   3281               CPI     R24, 33
   \   00000012   F411               BRNE    ??refresh_a_2
   \   00000014   E001               LDI     R16, 1
   \   00000016   CFFA               RJMP    ??refresh_a_1
   2086           
   2087            if( (m==0xe)  || (m==0xf) ) goto lk1j;
   \                     ??refresh_a_2:
   \   00000018   308E               CPI     R24, 14
   \   0000001A   F049               BREQ    ??refresh_a_3
   \   0000001C   308F               CPI     R24, 15
   \   0000001E   F039               BREQ    ??refresh_a_3
   2088            
   2089            if (sel_modul==1){if (m >=5) return;}
   \   00000020   ....               RCALL   ?Subroutine103
   \                     ??CrossCallReturnLabel_195:
   \   00000022   F419               BRNE    ??refresh_a_4
   \   00000024   3085               CPI     R24, 5
   \   00000026   F018               BRCS    ??refresh_a_3
   \   00000028   C004               RJMP    ??CrossCallReturnLabel_28
   2090            else {if (m >=8) return;}
   \                     ??refresh_a_4:
   \   0000002A   3088               CPI     R24, 8
   \   0000002C   F410               BRCC    ??CrossCallReturnLabel_28
   2091            
   2092          lk1j:
   2093            
   2094                end_zamer(m); 
   \                     ??refresh_a_3:
   \   0000002E   2F08               MOV     R16, R24
   \   00000030   ....               RCALL   ?Subroutine19
   2095               
   2096               __disable_interrupt();
   2097               start_ttii[m]=arr_tii_32[m ];    //    -read_arhiv_tii(m); // начать новый минутный заме 
   2098               __enable_interrupt();
   2099             
   2100             
   2101          } 
   \                     ??CrossCallReturnLabel_28:
   \   00000032                      REQUIRE ?Subroutine125
   \   00000032                      ;               // Fall through to label ?Subroutine125
   2102                                                  
   2103           

   \                                 In segment FARCODE, align 2, keep-with-next
   2104           void start_aa(void)
   \                     start_aa:
   2105          {  
   \   00000000   ....               RCALL   ?Subroutine89
   2106          char m;       
   2107          time_sutok=set_time_day_zamer(real_time.r_date,real_time.r_month,real_time.r_year);
   \                     ??CrossCallReturnLabel_160:
   \   00000002   ....               RCALL   ?Subroutine17
   2108                if ( time_sutok <= unix) time_sutok+=86400; 
   2109          //при смене времени все времена окончания замеров установить но начальное значение тии не устанавливат
   2110          if(sel_modul==1){for (m=0; m < 5;m++) end_zamer(m);}
   \                     ??CrossCallReturnLabel_24:
   \   00000004   ....               RCALL   ?Subroutine103
   \                     ??CrossCallReturnLabel_196:
   \   00000006   E080               LDI     R24, 0
   \   00000008   F421               BRNE    ??start_aa_0
   \                     ??start_aa_1:
   \   0000000A   ....               RCALL   ?Subroutine93
   \                     ??CrossCallReturnLabel_170:
   \   0000000C   3085               CPI     R24, 5
   \   0000000E   F420               BRCC    ??start_aa_2
   \   00000010   CFFC               RJMP    ??start_aa_1
   2111          else{ for (m=0; m < 8;m++) end_zamer(m);}
   \                     ??start_aa_0:
   \   00000012   ....               RCALL   ?Subroutine93
   \                     ??CrossCallReturnLabel_171:
   \   00000014   3088               CPI     R24, 8
   \   00000016   F3E8               BRCS    ??start_aa_0
   2112          for (m=0; m < 2;m++) end_zamer_tit(m);
   \                     ??start_aa_2:
   \   00000018   E080               LDI     R24, 0
   \                     ??start_aa_3:
   \   0000001A   2F08               MOV     R16, R24
   \   0000001C   ....               RCALL   ?Subroutine94
   \                     ??CrossCallReturnLabel_173:
   \   0000001E   9583               INC     R24
   \   00000020   3082               CPI     R24, 2
   \   00000022   F3D8               BRCS    ??start_aa_3
   2113          for (m=14; m < 16;m++) end_zamer(m); 
   \   00000024   E08E               LDI     R24, 14
   \                     ??start_aa_4:
   \   00000026   ....               RCALL   ?Subroutine93
   \                     ??CrossCallReturnLabel_172:
   \   00000028   3180               CPI     R24, 16
   \   0000002A   F3E8               BRCS    ??start_aa_4
   2114                
   2115                
   2116          }                                          
   \   0000002C   ....               RJMP    ?Subroutine125

   \                                 In segment FARCODE, align 2, keep-with-next
   \                     ?Subroutine93:
   \   00000000   2F08               MOV     R16, R24
   \   00000002   ........           CALL    end_zamer
   \   00000006   9583               INC     R24
   \   00000008   9508               RET
   2117          
   2118          
   2119            
   2120            /////////////////////////////////                     
   2121          
   2122          
   2123                    
   2124             
   2125          
   2126          /////////////////////////////////////////////////////////
   2127          /* 
   2128          void local_psm(void) 
   2129          {     
   2130          
   2131          
   2132            if (c2_byte.mb[38]!=0xaa) return; 
   2133            if (c2_byte.mb[39]!=0) return;
   2134            
   2135            if ( bit_level==1) {bit_level=0;start_aa();} 
   2136            
   2137            store_tii();
   2138            lock_arh();
   2139            
   2140            
   2141          }
   2142          
   2143          
   2144          
   2145          void energy_plus(void)
   2146          {
   2147          char k;
   2148          
   2149          if(cnt_sec<DEF_CNT_SEC)return;
   2150          cnt_sec=0;
   2151          
   2152          burst_ds_r();
   2153          
   2154            for (k=0;k<8;k++)
   2155                                  { 
   2156                                  if (timer_tii[k] ==0) continue;
   2157                                  if (lock_bit & (1<<k) ) continue;
   2158                                  if (unix >=timer_tii[k] )      // если ожидаемое время больше текущего
   2159                                                            { 
   2160                                                             tii_bit=tii_bit | (1<<k);
   2161                                                             lock_bit=lock_bit | (1<<k);
   2162                                                             }
   2163                                                     
   2164                                  }
   2165               
   2166          
   2167          tarhiv++;
   2168                     if (tarhiv>=60)
   2169                             { 
   2170                             tii_bit_minut=0xff;
   2171                              tarhiv=0;
   2172                             }
   2173            
   2174             local_psm();
   2175             
   2176                }
   2177             */
   2178           
   2179          

   \                                 In segment FARCODE, align 2, keep-with-next
   2180          void energy_plus(void)
   \                     energy_plus:
   2181          {
   \   00000000   ........           CALL    ?PROLOGUE9_L09
   \   00000004                      REQUIRE ?Register_R4_is_cg_reg
   \   00000004                      REQUIRE ?Register_R5_is_cg_reg
   \   00000004                      REQUIRE ?Register_R6_is_cg_reg
   \   00000004                      REQUIRE ?Register_R7_is_cg_reg
   \   00000004                      REQUIRE ?Register_R8_is_cg_reg
   2182          char k,max;
   2183          union
   2184            {  int data;
   2185          struct
   2186             {     
   2187               int psm_sost   :8 ;
   2188               int err_switch     :4 ;
   2189               int err_psm    :4 ;
   2190             
   2191             } sost;
   2192            } mb; 
   2193          
   2194          //if (c2_byte.mb[38]!=0xaa) return; 
   2195          //if (c2_byte.mb[39]!=0) return;
   2196          
   2197          
   2198          
   2199          if(cnt_sec<DEF_CNT_SEC)return;
   \   00000004   ....               LDI     R26, LOW(timer_psm)
   \   00000006   ....               LDI     R27, (timer_psm) >> 8
   \   00000008   01FD               MOVW    R31:R30, R27:R26
   \   0000000A   A100               LDD     R16, Z+32
   \   0000000C   A111               LDD     R17, Z+33
   \   0000000E   3D06               CPI     R16, 214
   \   00000010   4013               SBCI    R17, 3
   \   00000012   F408               BRCC    $+2+2
   \   00000014   C0B9               RJMP    ??energy_plus_0
   2200          cnt_sec=0;
   \   00000016   E000               LDI     R16, 0
   \   00000018   A300               STD     Z+32, R16
   \   0000001A   A301               STD     Z+33, R16
   2201          
   2202          
   2203          bpa_avtomat();
   \   0000001C   ........           CALL    bpa_avtomat
   2204          
   2205          burst_ds_r();
   \   00000020   ........           CALL    burst_ds_r
   2206          
   2207          if(sel_modul==1)max=5;else max=8;
   \   00000024   ....               RCALL   ?Subroutine103
   \                     ??CrossCallReturnLabel_197:
   \   00000026   F411               BRNE    ??energy_plus_1
   \   00000028   E005               LDI     R16, 5
   \   0000002A   C001               RJMP    ??energy_plus_2
   \                     ??energy_plus_1:
   \   0000002C   E008               LDI     R16, 8
   \                     ??energy_plus_2:
   \   0000002E   2E80               MOV     R8, R16
   2208          
   2209          if(timer_psm !=0) timer_psm--;    // время до переключения отсчитывается в секундах !!! // для ГЗУ
   \   00000030   ....               RCALL   ?Subroutine70
   \                     ??CrossCallReturnLabel_108:
   \   00000032   F051               BREQ    ??energy_plus_3
   \   00000034   910D               LD      R16, X+
   \   00000036   9612               ADIW    R27:R26, 2
   \   00000038   5001               SUBI    R16, 1
   \   0000003A   4010               SBCI    R17, 0
   \   0000003C   4020               SBCI    R18, 0
   \   0000003E   4030               SBCI    R19, 0
   \   00000040   933C               ST      X, R19
   \   00000042   932E               ST      -X, R18
   \   00000044   931E               ST      -X, R17
   \   00000046   930E               ST      -X, R16
   2210          
   2211            for (k=0;k<max;k++)
   \                     ??energy_plus_3:
   \   00000048   E050               LDI     R21, 0
   \   0000004A   C019               RJMP    ??energy_plus_4
   2212                                  { 
   2213                                  if (timer_tii[k] ==0) continue;  
   \                     ??energy_plus_5:
   \   0000004C   ....               RCALL   ?Subroutine41
   \                     ??CrossCallReturnLabel_51:
   \   0000004E   F0B1               BREQ    ??CrossCallReturnLabel_25
   2214                                  if (lock_bit & (1<<k) ) continue;
   \   00000050   ....               RCALL   ?Subroutine35
   \                     ??CrossCallReturnLabel_258:
   \   00000052   F4A1               BRNE    ??CrossCallReturnLabel_25
   2215                                  // условный счет
   2216                                  tii_moto.config=*(unsigned int*)&c2_byte.mb[k<<1];
   \   00000054   0C44               LSL     R4
   \   00000056   1C55               ROL     R5
   \   00000058   0D84               ADD     R24, R4
   \   0000005A   1D95               ADC     R25, R5
   \   0000005C   01FC               MOVW    R31:R30, R25:R24
   \   0000005E   8180               LD      R24, Z
   \   00000060   8191               LDD     R25, Z+1
   \   00000062   01FD               MOVW    R31:R30, R27:R26
   \   00000064   8F80               STD     Z+24, R24
   \   00000066   8F91               STD     Z+25, R25
   2217                                  if (  (tii_moto.bit.type_zam==1)  && ((modbus_mem1[AD_TS] >> k) & 1 ) ) cnt_moto[k]++;
   \   00000068   E0E0               LDI     R30, 0
   \   0000006A   E1F8               LDI     R31, 24
   \   0000006C   23F9               AND     R31, R25
   \   0000006E   30E0               CPI     R30, 0
   \   00000070   40F8               SBCI    R31, 8
   \   00000072   F419               BRNE    ??CrossCallReturnLabel_29
   \   00000074   ....               RCALL   ?Subroutine53
   \                     ??CrossCallReturnLabel_71:
   \   00000076   F009               BREQ    ??CrossCallReturnLabel_29
   \   00000078   ....               RCALL   ?Subroutine20
   2218                                       /*
   2219                                       {
   2220                                         if ( old_realsec[k] <= real_time.r_sec)   cnt_moto[k]+=real_time.r_sec-old_realsec[k];
   2221                                         else  cnt_moto[k]+=60 + real_time.r_sec-old_realsec[k];
   2222                                       }
   2223                                  old_realsec[k]=real_time.r_sec;
   2224                                  */
   2225                                  
   2226                                  // условный счет
   2227                                  if (unix >=timer_tii[k] )      // если ожидаемое время больше текущего
   \                     ??CrossCallReturnLabel_29:
   \   0000007A   ....               RCALL   ?Subroutine18
   2228                                                            { 
   2229          
   2230                                                             tii_bit=tii_bit | (1<<k);
   2231                                                             lock_bit=lock_bit | (1<<k);
   2232                                                             }
   2233                                                     
   2234                                  }
   \                     ??CrossCallReturnLabel_25:
   \   0000007C   9553               INC     R21
   \                     ??energy_plus_4:
   \   0000007E   ....               RCALL   ?Subroutine52
   \                     ??CrossCallReturnLabel_69:
   \   00000080   A860               LDD     R6, Z+48
   \   00000082   A871               LDD     R7, Z+49
   \   00000084   ....               LDI     R24, LOW(c2_byte)
   \   00000086   ....               LDI     R25, (c2_byte) >> 8
   \   00000088   1558               CP      R21, R8
   \   0000008A   F300               BRCS    ??energy_plus_5
   2235            
   2236            for (k=14;k<16;k++)
   \   0000008C   E05E               LDI     R21, 14
   2237                                  { 
   2238                                  if (timer_tii[k] ==0) continue;  
   \                     ??energy_plus_6:
   \   0000008E   ....               RCALL   ?Subroutine41
   \                     ??CrossCallReturnLabel_52:
   \   00000090   F0B1               BREQ    ??CrossCallReturnLabel_26
   2239                                  if (lock_bit & (1<<k) ) continue;
   \   00000092   ....               RCALL   ?Subroutine35
   \                     ??CrossCallReturnLabel_259:
   \   00000094   F4A1               BRNE    ??CrossCallReturnLabel_26
   2240                                  // условный счет
   2241                                  tii_moto.config=*(unsigned int*)&c2_byte.mb[k<<1];
   \   00000096   0C44               LSL     R4
   \   00000098   1C55               ROL     R5
   \   0000009A   01FC               MOVW    R31:R30, R25:R24
   \   0000009C   0DE4               ADD     R30, R4
   \   0000009E   1DF5               ADC     R31, R5
   \   000000A0   8040               LD      R4, Z
   \   000000A2   8051               LDD     R5, Z+1
   \   000000A4   01FD               MOVW    R31:R30, R27:R26
   \   000000A6   8E40               STD     Z+24, R4
   \   000000A8   8E51               STD     Z+25, R5
   2242                                   if (  (tii_moto.bit.type_zam==1)  && ((modbus_mem1[AD_TS] >> k) & 1 ) ) cnt_moto[k]++;
   \   000000AA   E0E0               LDI     R30, 0
   \   000000AC   E1F8               LDI     R31, 24
   \   000000AE   21F5               AND     R31, R5
   \   000000B0   30E0               CPI     R30, 0
   \   000000B2   40F8               SBCI    R31, 8
   \   000000B4   F419               BRNE    ??CrossCallReturnLabel_30
   \   000000B6   ....               RCALL   ?Subroutine53
   \                     ??CrossCallReturnLabel_72:
   \   000000B8   F009               BREQ    ??CrossCallReturnLabel_30
   \   000000BA   ....               RCALL   ?Subroutine20
   2243                                  /*
   2244                                  if (  (tii_moto.bit.enable==1)  &&
   2245                                        (((modbus_mem1[AD_TS] >> tii_moto.bit.nomer_tc) & 1 )==tii_moto.bit.level_tc ) ) 
   2246                                  
   2247                                 {
   2248                                         if ( old_realsec[k] <= real_time.r_sec)   cnt_moto[k]+=real_time.r_sec-old_realsec[k];
   2249                                         else  cnt_moto[k]+=60 + real_time.r_sec-old_realsec[k];
   2250                                       }
   2251                                  old_realsec[k]=real_time.r_sec;
   2252                                  */
   2253                                  
   2254                                  // условный счет
   2255                                  if (unix >=timer_tii[k] )      // если ожидаемое время больше текущего
   \                     ??CrossCallReturnLabel_30:
   \   000000BC   ....               RCALL   ?Subroutine18
   2256                                                            { 
   2257          
   2258                                                             tii_bit=tii_bit | (1<<k);
   2259                                                             lock_bit=lock_bit | (1<<k);
   2260                                                             }
   2261                                                     
   2262                                  }
   \                     ??CrossCallReturnLabel_26:
   \   000000BE   9553               INC     R21
   \   000000C0   3150               CPI     R21, 16
   \   000000C2   F328               BRCS    ??energy_plus_6
   2263            
   2264            
   2265               
   2266          //
   2267            // для замеров ТИТ
   2268            //
   2269            for (k=0;k<2;k++)
   \   000000C4   E050               LDI     R21, 0
   \                     ??energy_plus_7:
   \   000000C6   E004               LDI     R16, 4
   \   000000C8   9F50               MUL     R21, R16
   \   000000CA   01FD               MOVW    R31:R30, R27:R26
   \   000000CC   0DE0               ADD     R30, R0
   \   000000CE   1DF1               ADC     R31, R1
   \   000000D0   ....               RCALL   ?Subroutine98
   \                     ??CrossCallReturnLabel_185:
   \   000000D2   2D00               MOV     R16, R0
   \   000000D4   2901               OR      R16, R1
   \   000000D6   2902               OR      R16, R2
   \   000000D8   2903               OR      R16, R3
   \   000000DA   F0A1               BREQ    ??energy_plus_8
   \   000000DC   ....               RCALL   ?Subroutine59
   \                     ??CrossCallReturnLabel_242:
   \   000000DE   2F45               MOV     R20, R21
   \   000000E0   ....               RCALL   ?Subroutine85
   \                     ??CrossCallReturnLabel_146:
   \   000000E2   01FD               MOVW    R31:R30, R27:R26
   \   000000E4   A113               LDD     R17, Z+35
   \   000000E6   2310               AND     R17, R16
   \   000000E8   F469               BRNE    ??energy_plus_8
   2270                                  { 
   2271                                  if (timer_tit[k] ==0) continue;
   2272                                  if (lock_bit_tit & (1<<k) ) continue;
   2273                                  if (unix >=timer_tit[k] )      // если ожидаемое время больше текущего
   \   000000EA   ....               RCALL   ?Subroutine24
   \                     ??CrossCallReturnLabel_32:
   \   000000EC   1440               CP      R4, R0
   \   000000EE   0451               CPC     R5, R1
   \   000000F0   0462               CPC     R6, R2
   \   000000F2   0473               CPC     R7, R3
   \   000000F4   F038               BRCS    ??energy_plus_8
   2274                                                            { 
   2275                                                             tit_bit=tit_bit | (1<<k);
   \   000000F6   01FD               MOVW    R31:R30, R27:R26
   \   000000F8   A114               LDD     R17, Z+36
   \   000000FA   2B10               OR      R17, R16
   \   000000FC   A314               STD     Z+36, R17
   2276                                                             lock_bit_tit=lock_bit_tit | (1<<k);
   \   000000FE   A113               LDD     R17, Z+35
   \   00000100   2B10               OR      R17, R16
   \   00000102   A313               STD     Z+35, R17
   2277                                                             //timer_tii[k]=0;
   2278                                                             }
   2279                                                     
   2280                                  }
   \                     ??energy_plus_8:
   \   00000104   9553               INC     R21
   \   00000106   3052               CPI     R21, 2
   \   00000108   F2F0               BRCS    ??energy_plus_7
   2281            
   2282            
   2283            
   2284          tarhiv++;
   \   0000010A   01FD               MOVW    R31:R30, R27:R26
   \   0000010C   A107               LDD     R16, Z+39
   \   0000010E   9503               INC     R16
   \   00000110   A307               STD     Z+39, R16
   2285                     if (tarhiv>=60)
   \   00000112   330C               CPI     R16, 60
   \   00000114   F050               BRCS    ??energy_plus_9
   2286                             { 
   2287                             if( sost_psm==4) bit_zamer_psm=1;  // для ГЗУ
   \   00000116   A901               LDD     R16, Z+49
   \   00000118   3004               CPI     R16, 4
   \   0000011A   F411               BRNE    ??energy_plus_10
   \   0000011C   E001               LDI     R16, 1
   \   0000011E   A302               STD     Z+34, R16
   2288                             tii_bit_minut=0xffff;
   \                     ??energy_plus_10:
   \   00000120   EF0F               LDI     R16, 255
   \   00000122   8F06               STD     Z+30, R16
   \   00000124   8F07               STD     Z+31, R16
   2289                             tarhiv=0;
   \   00000126   E000               LDI     R16, 0
   \   00000128   A307               STD     Z+39, R16
   2290                             }
   2291           
   2292                    if( *(unsigned int*)&c2_byte.mb[38]==0xaa) 
   \                     ??energy_plus_9:
   \   0000012A   01FC               MOVW    R31:R30, R25:R24
   \   0000012C   A106               LDD     R16, Z+38
   \   0000012E   A117               LDD     R17, Z+39
   \   00000130   3A0A               CPI     R16, 170
   \   00000132   E020               LDI     R18, 0
   \   00000134   4010               SBCI    R17, 0
   \   00000136   F489               BRNE    ??energy_plus_11
   2293          
   2294                    {
   2295            if ( bit_level==1) {bit_level=0;start_aa();} 
   \   00000138   01FD               MOVW    R31:R30, R27:R26
   \   0000013A   A105               LDD     R16, Z+37
   \   0000013C   3001               CPI     R16, 1
   \   0000013E   F411               BRNE    ??energy_plus_12
   \   00000140   A325               STD     Z+37, R18
   \   00000142   ....               RCALL   start_aa
   2296            store_tii();
   \                     ??energy_plus_12:
   \   00000144   ....               RCALL   store_tii
   2297            lock_arh();  
   \   00000146   ....               RCALL   lock_arh
   2298            lock_arh_tit(); 
   \   00000148   ....               RCALL   lock_arh_tit
   2299            
   2300            if (*(unsigned int*)&c2_byte.mb[46]==1) day_zamer();
   \   0000014A   01FC               MOVW    R31:R30, R25:R24
   \   0000014C   A506               LDD     R16, Z+46
   \   0000014E   A517               LDD     R17, Z+47
   \   00000150   3001               CPI     R16, 1
   \   00000152   4010               SBCI    R17, 0
   \   00000154   F411               BRNE    ??energy_plus_11
   \   00000156   ........           CALL    day_zamer
   2301                    }
   2302            
   2303            if(sel_modul!=1) {
   \                     ??energy_plus_11:
   \   0000015A   ....               RCALL   ?Subroutine103
   \                     ??CrossCallReturnLabel_198:
   \   0000015C   F0A9               BREQ    ??energy_plus_0
   2304                                   local_psm();
   \   0000015E   ....               RCALL   local_psm
   2305                                  
   2306                                  mb.sost.psm_sost=sost_psm;
   2307                                  mb.sost.err_switch=err_switch;
   2308                                  mb.sost.err_psm=err_psm;
   2309                                  modbus_mem1[AD_SOST_PSM]=mb.data;
   \   00000160   01FD               MOVW    R31:R30, R27:R26
   \   00000162   A901               LDD     R16, Z+49
   \   00000164   A511               LDD     R17, Z+41
   \   00000166   701F               ANDI    R17, 0x0F
   \   00000168   A530               LDD     R19, Z+40
   \   0000016A   0F33               LSL     R19
   \   0000016C   0F33               LSL     R19
   \   0000016E   0F33               LSL     R19
   \   00000170   0F33               LSL     R19
   \   00000172   2B31               OR      R19, R17
   \   00000174   ....               LDI     R30, LOW((modbus_mem1 + 66))
   \   00000176   ....               LDI     R31, HIGH((modbus_mem1 + 66))
   \   00000178   8300               ST      Z, R16
   \   0000017A   8331               STD     Z+1, R19
   2310                                  modbus_mem1[AD_TIMER_PSM]=timer_psm;
   \   0000017C   910D               LD      R16, X+
   \   0000017E   911D               LD      R17, X+
   \   00000180   ....               LDI     R30, LOW((modbus_mem1 + 68))
   \   00000182   ....               LDI     R31, HIGH((modbus_mem1 + 68))
   \   00000184   8300               ST      Z, R16
   \   00000186   8311               STD     Z+1, R17
   \                     ??energy_plus_0:
   \   00000188   ....               RJMP    ?Subroutine124
   2311                                  
   2312                                  
   2313               
   2314                             } // только в режиме МТС
   2315            
   2316            
   2317          
   2318          
   2319            }  

   \                                 In segment FARCODE, align 2, keep-with-next
   \                     ?Subroutine41:
   \   00000000   2E45               MOV     R4, R21
   \   00000002   2455               CLR     R5
   \   00000004   0192               MOVW    R19:R18, R5:R4
   \   00000006   0F22               LSL     R18
   \   00000008   1F33               ROL     R19
   \   0000000A   0F22               LSL     R18
   \   0000000C   1F33               ROL     R19
   \   0000000E   01F9               MOVW    R31:R30, R19:R18
   \   00000010   ....               SUBI    R30, LOW((-(timer_tii) & 0xFFFF))
   \   00000012   ....               SBCI    R31, (-(timer_tii) & 0xFFFF) >> 8
   \   00000014   8000               LD      R0, Z
   \   00000016   8011               LDD     R1, Z+1
   \   00000018   8022               LDD     R2, Z+2
   \   0000001A   8033               LDD     R3, Z+3
   \   0000001C   2D00               MOV     R16, R0
   \   0000001E   2901               OR      R16, R1
   \   00000020   2902               OR      R16, R2
   \   00000022   2903               OR      R16, R3
   \   00000024   9508               RET

   \                                 In segment FARCODE, align 2, keep-with-next
   \                     ?Subroutine35:
   \   00000000   E001               LDI     R16, 1
   \   00000002   E010               LDI     R17, 0
   \   00000004   2F45               MOV     R20, R21
   \   00000006   ........           CALL    ?S_SHL_L02
   \   0000000A   01B8               MOVW    R23:R22, R17:R16
   \   0000000C   01FD               MOVW    R31:R30, R27:R26
   \   0000000E   8D02               LDD     R16, Z+26
   \   00000010   8D13               LDD     R17, Z+27
   \   00000012   2306               AND     R16, R22
   \   00000014   2317               AND     R17, R23
   \   00000016   ....               RJMP    ?Subroutine117

   \                                 In segment FARCODE, align 2, keep-with-next
   \                     ?Subroutine20:
   \   00000000   01F9               MOVW    R31:R30, R19:R18
   \   00000002   ....               SUBI    R30, LOW((-(cnt_moto) & 0xFFFF))
   \   00000004   ....               SBCI    R31, (-(cnt_moto) & 0xFFFF) >> 8
   \   00000006   8100               LD      R16, Z
   \   00000008   8111               LDD     R17, Z+1
   \   0000000A   8122               LDD     R18, Z+2
   \   0000000C   8133               LDD     R19, Z+3
   \   0000000E   5F0F               SUBI    R16, 255
   \   00000010   4F1F               SBCI    R17, 255
   \   00000012   4F2F               SBCI    R18, 255
   \   00000014   4F3F               SBCI    R19, 255
   \   00000016   8300               ST      Z, R16
   \   00000018   8311               STD     Z+1, R17
   \   0000001A   8322               STD     Z+2, R18
   \   0000001C   8333               STD     Z+3, R19
   \   0000001E   9508               RET

   \                                 In segment FARCODE, align 2, keep-with-next
   \                     ?Subroutine18:
   \   00000000   ....               LDI     R30, LOW(unix)
   \   00000002   ....               LDI     R31, (unix) >> 8
   \   00000004   8100               LD      R16, Z
   \   00000006   8111               LDD     R17, Z+1
   \   00000008   8122               LDD     R18, Z+2
   \   0000000A   8133               LDD     R19, Z+3
   \   0000000C   1500               CP      R16, R0
   \   0000000E   0511               CPC     R17, R1
   \   00000010   0522               CPC     R18, R2
   \   00000012   0533               CPC     R19, R3
   \   00000014   F068               BRCS    ??Subroutine18_0
   \   00000016   01FD               MOVW    R31:R30, R27:R26
   \   00000018   8D04               LDD     R16, Z+28
   \   0000001A   8D15               LDD     R17, Z+29
   \   0000001C   2B06               OR      R16, R22
   \   0000001E   2B17               OR      R17, R23
   \   00000020   8F04               STD     Z+28, R16
   \   00000022   8F15               STD     Z+29, R17
   \   00000024   8D02               LDD     R16, Z+26
   \   00000026   8D13               LDD     R17, Z+27
   \   00000028   2B06               OR      R16, R22
   \   0000002A   2B17               OR      R17, R23
   \   0000002C   8F02               STD     Z+26, R16
   \   0000002E   8F13               STD     Z+27, R17
   \                     ??Subroutine18_0:
   \   00000030   9508               RET

   \                                 In segment NEAR_ID, align 1, keep-with-next
   \                     `?<Initializer for timer_psm>`:
   \   00000000   00000000           DB 0, 0, 0, 0
   \                     `?<Initializer for unix_psm>`:
   \   00000004   00000000           DB 0, 0, 0, 0
   \                     `?<Initializer for timer_tit>`:
   \   00000008   000000000000       DB 0, 0, 0, 0, 0, 0, 0, 0
   \              0000        
   \                     `?<Initializer for start_tii_gzu>`:
   \   00000010   00000000           DB 0, 0, 0, 0
   \                     `?<Initializer for delta_ys>`:
   \   00000014   00000000           DB 0, 0, 0, 0
   \                     `?<Initializer for tii_moto>`:
   \   00000018   0000               DB 0, 0
   \                     `?<Initializer for lock_bit>`:
   \   0000001A   0000               DB 0, 0
   \                     `?<Initializer for tii_bit>`:
   \   0000001C   0000               DB 0, 0
   \                     `?<Initializer for tii_bit_minut>`:
   \   0000001E   0000               DB 0, 0
   \                     `?<Initializer for cnt_sec>`:
   \   00000020   0000               DB 0, 0
   \                     `?<Initializer for bit_zamer_psm>`:
   \   00000022   00                 DB 0
   \                     `?<Initializer for lock_bit_tit>`:
   \   00000023   00                 DB 0
   \                     `?<Initializer for tit_bit>`:
   \   00000024   00                 DB 0
   \                     `?<Initializer for bit_level>`:
   \   00000025   00                 DB 0
   \                     `?<Initializer for bit_level_psm>`:
   \   00000026   00                 DB 0
   \                     `?<Initializer for tarhiv>`:
   \   00000027   00                 DB 0
   \                     `?<Initializer for err_psm>`:
   \   00000028   00                 DB 0
   \                     `?<Initializer for err_switch>`:
   \   00000029   00                 DB 0
   \                     `?<Initializer for cnt_try_ys>`:
   \   0000002A   00                 DB 0
   \                     `?<Initializer for tekpsm>`:
   \   0000002B   00                 DB 0
   \                     `?<Initializer for pred_mask>`:
   \   0000002C   00                 DB 0
   \                     `?<Initializer for fin_ys>`:
   \   0000002D   00                 DB 0
   \                     `?<Initializer for count_sboj>`:
   \   0000002E   00                 DB 0
   \                     `?<Initializer for zadan_ys>`:
   \   0000002F   00                 DB 0
   \                     `?<Initializer for global_try>`:
   \   00000030   03                 DB 3
   \                     `?<Initializer for sost_psm>`:
   \   00000031   00                 DB 0

   \                                 In segment SWITCH, align 2, keep-with-next
   \                     `?<Jumptable for end_zamer>_0`:
   \   00000000   0000               DW      0
   \   00000002   01                 DB      1
   \   00000003   ......             DP      (??end_zamer_14) /2
   \   00000006   ......             DP      (??end_zamer_9) /2
   \   00000009   0A                 DB      0xa
   \   0000000A   ......             DP      (??end_zamer_1) /2
   \   0000000D   0A                 DB      0xa
   \   0000000E   ......             DP      (??end_zamer_3) /2
   \   00000011   0A                 DB      0xa
   \   00000012   ......             DP      (??end_zamer_4) /2
   \   00000015   1E                 DB      0x1e
   \   00000016   ......             DP      (??end_zamer_5) /2
   \   00000019   3C                 DB      0x3c
   \   0000001A   ......             DP      (??end_zamer_6) /2
   \   0000001D   78                 DB      0x78
   \   0000001E   ......             DP      (??end_zamer_7) /2
   \   00000021   78                 DB      0x78
   \   00000022   ......             DP      (??end_zamer_8) /2
   \   00000025   04FE38             DB      254,0x4,0x38
   \   00000028   ......             DP      (??end_zamer_10) /2
   \   0000002B   FB                 DB      251

   \                                 In segment SWITCH, align 2, keep-with-next
   \                     `?<Jumptable for end_zamer_tit>_0`:
   \   00000000   0000               DW      0
   \   00000002   01                 DB      1
   \   00000003   ......             DP      (??end_zamer_tit_16) /2
   \   00000006   ......             DP      (??end_zamer_tit_2) /2
   \   00000009   05                 DB      0x5
   \   0000000A   ......             DP      (??end_zamer_tit_3) /2
   \   0000000D   05                 DB      0x5
   \   0000000E   ......             DP      (??end_zamer_tit_5) /2
   \   00000011   0A                 DB      0xa
   \   00000012   ......             DP      (??end_zamer_tit_6) /2
   \   00000015   0A                 DB      0xa
   \   00000016   ......             DP      (??end_zamer_tit_7) /2
   \   00000019   1E                 DB      0x1e
   \   0000001A   ......             DP      (??end_zamer_tit_8) /2
   \   0000001D   3C                 DB      0x3c
   \   0000001E   ......             DP      (??end_zamer_tit_9) /2
   \   00000021   78                 DB      0x78
   \   00000022   ......             DP      (??end_zamer_tit_10) /2
   \   00000025   78                 DB      0x78
   \   00000026   ......             DP      (??end_zamer_tit_11) /2
   \   00000029   04FE38             DB      254,0x4,0x38
   \   0000002C   ......             DP      (??end_zamer_tit_12) /2
   \   0000002F   FB                 DB      251
   2320          
   2321           
   2322            
   2323            
   2324            
   2325            
   2326            
   2327          
   2328          
   2329          

   Maximum stack usage in bytes:

     Function                CSTACK RSTACK
     --------                ------ ------
     crc_sum                     0      3
     day_zamer                  30      6
       -> RdFromFleshToArr      30      3
       -> crc_sum               30      3
       -> crc_sum               30      3
       -> WrArrayToFlesh        30      3
       -> WrArrayToFlesh        30      3
     end_zamer                  13      6
       -> set_end_time          13      3
       -> set_end_time          13      3
       -> set_end_time          13      3
       -> set_end_time          13      3
       -> set_end_time          13      3
       -> set_end_time          13      3
       -> set_end_time          13      3
       -> set_end_time          13      3
     end_zamer_tit              12      6
       -> set_end_time          12      3
       -> set_end_time          12      3
       -> set_end_time          12      3
       -> set_end_time          12      3
       -> set_end_time          12      3
       -> set_end_time          12      3
       -> set_end_time          12      3
       -> set_end_time          12      3
       -> set_end_time          12      3
     energy_plus                13      6
       -> bpa_avtomat           13      3
       -> burst_ds_r            13      3
       -> start_aa              13      3
       -> store_tii             13      3
       -> lock_arh              13      3
       -> lock_arh_tit          13      3
       -> day_zamer             13      3
       -> local_psm             13      3
     insert_zapis_kd            24      6
       -> RdFromFleshToArr      24      3
       -> crc_sum               24      3
       -> WrArrayToFlesh        24      3
       -> WrArrayToFlesh        24      3
     insert_zapis_tc            20      6
       -> crc_sum               20      3
       -> WrArrayToFlesh        20      3
       -> WrArrayToFlesh        20      3
     insert_zapis_tit           20      6
       -> crc_sum               20      3
       -> WrArrayToFlesh        20      3
       -> WrArrayToFlesh        20      3
     local_psm                  34      6
       -> store_ys              34      3
       -> test_nenull           34      3
       -> RdFromFleshToArr      34      3
       -> crc_sum               34      3
       -> store_ys_minut        34      3
       -> store_ys              34      3
       -> test_nenull           34      3
       -> store_ys              34      3
       -> test_nenull           34      3
       -> test_switch_psm       34      3
       -> test_switch_psm       34      3
     lock_arh                    1      6
       -> store_tii_lock         1      3
       -> WrArrayToFlesh         1      3
       -> end_zamer              1      3
     lock_arh_tit                1      6
       -> store_tit_lock         1      3
       -> WrArrayToFlesh         1      3
       -> end_zamer_tit          1      3
     read_arhiv_tii             24      6
       -> RdFromFleshToArr      24      3
       -> crc_sum               24      3
     refresh_a                   4      3
       -> set_time_day_zamer     4      3
       -> end_zamer_tit          4      3
       -> end_zamer_tit          4      3
       -> end_zamer              4      3
     set_end_time                9      6
     set_time_day_zamer          6      6
     start_a                     8      3
       -> end_zamer              8      3
       -> read_arhiv_tii         8      3
       -> try_form_arhiv         8      3
       -> end_zamer              8      3
       -> read_arhiv_tii         8      3
       -> try_form_arhiv         8      3
       -> end_zamer              8      3
       -> read_arhiv_tii         8      3
       -> try_form_arhiv         8      3
       -> set_time_day_zamer     8      3
       -> end_zamer_tit          8      3
     start_aa                    4      3
       -> set_time_day_zamer     4      3
       -> end_zamer              4      3
       -> end_zamer              4      3
       -> end_zamer_tit          4      3
       -> end_zamer              4      3
     store_tii                  26      6
       -> crc_sum               26      3
       -> WrArrayToFlesh        26      3
     store_tii_lock             26      6
       -> crc_sum               26      3
       -> WrArrayToFlesh        26      3
       -> WrArrayToFlesh        26      3
     store_tit_lock             24      6
       -> crc_sum               24      3
       -> WrArrayToFlesh        24      3
     store_ys                    4      3
       -> store_ys_lock          4      3
       -> WrArrayToFlesh         4      3
     store_ys_lock              26      6
       -> crc_sum               26      3
       -> WrArrayToFlesh        26      3
     store_ys_minut             26      6
       -> crc_sum               26      3
       -> WrArrayToFlesh        26      3
     test_nenull                 0      3
     test_switch_psm             0      3
     try_find_arhiv             29      6
       -> RdFromFleshToArr      29      3
       -> crc_sum               29      3
     try_form_arhiv             26      6
       -> RdFromFleshToArr      26      3
       -> crc_sum               26      3
       -> try_find_arhiv        26      3
       -> WrArrayToFlesh        26      3
       -> WrArrayToFlesh        26      3


   Segment part sizes:

     Function/Label                 Bytes
     --------------                 -----
     _A_PORTA                          1
     cnt_moto                         64
     c2_byte                          68
     c1_byte                          40
     timer_tii                        64
     old_realsec                      16
     start_ttii                       64
     arr_tii_32                       64
     day_accum                        16
     count_try                         1
     try_ty                            1
     timer_psm                        50
     insert_zapis_kd                 164
     ?Subroutine15                    10
     ?Subroutine8                     18
     ?Subroutine44                     8
     ?Subroutine3                     70
     ?Subroutine120                    4
     ?Subroutine16                    14
     ?Subroutine107                   10
     ?Subroutine22                    14
     ?Subroutine39                     4
     insert_zapis_tc                  68
     ?Subroutine0                     90
     ?Subroutine110                    6
     ?Subroutine49                    10
     ?Subroutine106                   10
     ?Subroutine52                     6
     ?Subroutine23                     6
     ?Subroutine53                    12
     insert_zapis_tit                 52
     ?Subroutine21                     4
     ?Subroutine104                   10
     ?Subroutine54                     8
     ?Subroutine51                    10
     day_zamer                       394
     ?Subroutine61                    12
     ?Subroutine43                     6
     ?Subroutine119                    4
     ?Subroutine105                   10
     ?Subroutine71                    10
     ?Subroutine69                     6
     ?Subroutine60                     8
     ?Subroutine65                    12
     ?Subroutine62                    10
     ?Subroutine76                    10
     ?Subroutine75                    10
     ?Subroutine13                     2
     ?Subroutine115                    4
     ?Subroutine118                    6
     ?Subroutine74                     8
     ?Subroutine116                    4
     ?Subroutine72                    10
     ?Subroutine68                    10
     ?Subroutine108                   10
     ?Subroutine36                    12
     set_time_day_zamer              158
     ?Subroutine121                    6
     ?Subroutine78                    10
     ?Subroutine111                    6
     ?Subroutine37                    10
     ?Subroutine7                     22
     ?Subroutine6                     28
     ?Subroutine5                     24
     end_zamer                       300
     ?Subroutine81                    10
     ?Subroutine64                     6
     ?Subroutine122                    4
     ?Subroutine56                    12
     ?Subroutine55                    14
     ?Subroutine82                    12
     ?Subroutine80                     6
     ?Subroutine79                    14
     ?Subroutine12                    10
     ?Subroutine11                    10
     ?Subroutine10                    10
     ?Subroutine9                     10
     ?Subroutine4                     22
     ?Subroutine123                    4
     ?Subroutine1                     38
     ?Subroutine83                    10
     ?Subroutine59                     2
     ?Subroutine112                    4
     ?Subroutine84                     8
     end_zamer_tit                   272
     ?Subroutine88                     8
     ?Subroutine87                     8
     ?Subroutine63                     8
     ?Subroutine86                    10
     ?Subroutine85                     4
     ?Subroutine24                    14
     set_end_time                    144
     ?Subroutine124                    6
     crc_sum                          30
     read_arhiv_tii                   62
     ?Subroutine38                    22
     ?Subroutine90                    10
     ?Subroutine31                    48
     ?Subroutine27                    48
     ?Subroutine125                    6
     ?Subroutine89                     4
     store_tii                       190
     ?Subroutine34                    40
     ?Subroutine91                     6
     ?Subroutine92                    10
     ?Subroutine45                     8
     store_tii_lock                  158
     ?Subroutine126                    6
     ?Subroutine97                    10
     ?Subroutine47                     4
     ?Subroutine48                    18
     ?Subroutine33                    34
     ?Subroutine96                    10
     ?Subroutine95                     4
     store_tit_lock                   70
     ?Subroutine113                    4
     ?Subroutine42                     8
     ?Subroutine98                    10
     lock_arh_tit                     48
     ?Subroutine114                    4
     ?Subroutine2                     50
     ?Subroutine94                     2
     lock_arh                         92
     ?Subroutine19                    40
     test_nenull                      62
     test_switch_psm                  58
     store_ys_minut                   86
     ?Subroutine40                    14
     ?Subroutine32                    60
     ?Subroutine29                    16
     store_ys_lock                   118
     store_ys                         64
     local_psm                       822
     ?Subroutine101                    6
     ?Subroutine109                    8
     ?Subroutine100                    2
     ?Subroutine99                     6
     ?Subroutine67                    10
     ?Subroutine66                     6
     ?Subroutine58                    10
     ?Subroutine50                    18
     ?Subroutine46                     8
     ?Subroutine26                    10
     ?Subroutine25                    10
     ?Subroutine117                    4
     ?Subroutine14                     4
     ?Subroutine28                    18
     ?Subroutine70                    18
     try_find_arhiv                   92
     ?Subroutine102                   14
     try_form_arhiv                   40
     start_a                          66
     ?Subroutine77                    58
     ?Subroutine17                    82
     ?Subroutine103                    8
     refresh_a                        50
     start_aa                         46
     ?Subroutine93                    10
     energy_plus                     394
     ?Subroutine41                    38
     ?Subroutine35                    24
     ?Subroutine20                    32
     ?Subroutine18                    50
     ?<Initializer for timer_psm>     50
     ?<Jumptable for end_zamer>_0     44
     ?<Jumptable for end_zamer_tit>_0
                                      48
      Others                          14

 
     1 byte  in segment ABSOLUTE
 5 908 bytes in segment FARCODE
    14 bytes in segment INITTAB
    50 bytes in segment NEAR_I
    50 bytes in segment NEAR_ID
   398 bytes in segment NEAR_Z
    92 bytes in segment SWITCH
 
 6 050 bytes of CODE memory (+ 14 bytes shared)
   448 bytes of DATA memory (+  1 byte  shared)

Errors: none
Warnings: none
