##############################################################################
#                                                                            #
#                                                      24/Oct/2025  13:29:18 #
# IAR Atmel AVR C/C++ Compiler V4.12A/W32, Evaluation Version                #
# Copyright 1996-2005 IAR Systems. All rights reserved.                      #
#                                                                            #
#    Source file  =  E:\sim800Elam2560_bootnew_i2cerr_a7682e\logs.c          #
#    Command line =  E:\sim800Elam2560_bootnew_i2cerr_a7682e\logs.c          #
#                    --cpu=m2560 -ms -o E:\sim800Elam2560_bootnew_i2cerr_a76 #
#                    82e\Debug\Obj\ -lCN E:\sim800Elam2560_bootnew_i2cerr_a7 #
#                    682e\Debug\List\ -lA E:\sim800Elam2560_bootnew_i2cerr_a #
#                    7682e\Debug\List\ -y --initializers_in_flash -z9        #
#                    --no_inline --no_tbaa --cross_call_passes=1 --debug -e  #
#                    -I "E:\box\IAR Systems\Embedded Workbench 4.0           #
#                    Evaluation\avr\INC\" -I "E:\box\IAR Systems\Embedded    #
#                    Workbench 4.0 Evaluation\avr\INC\DLIB\" --eeprom_size   #
#                    4096 --dlib_config "E:\box\IAR Systems\Embedded         #
#                    Workbench 4.0 Evaluation\avr\LIB\DLIB\dlAVR-5s-ec-n.h"  #
#    List file    =  E:\sim800Elam2560_bootnew_i2cerr_a7682e\Debug\List\logs #
#                    .lst                                                    #
#    Object file  =  E:\sim800Elam2560_bootnew_i2cerr_a7682e\Debug\Obj\logs. #
#                    r90                                                     #
#                                                                            #
#                                                                            #
##############################################################################

E:\sim800Elam2560_bootnew_i2cerr_a7682e\logs.c
      1          #include "def_log.h"
      2          #include "map_ef.h"
      3          #include "def_link.h"
      4          #include "ozu_map.h"
      5          
      6          extern unsigned long int burst_ds_r(void);
      7          extern void WrArrayToFlesh(unsigned int adres_flesh,  unsigned char *adres_ozu, unsigned int num,unsigned char flag,unsigned char znach);   
      8          extern void RdFromFleshToArr(unsigned int adres_flesh, unsigned char *adres_ozu,unsigned int num);
      9          extern unsigned char buf_tx_232[VOL_TX_PPP];
     10          

   \                                 In segment NEAR_Z, align 1, keep-with-next
   \   00000000                      REQUIRE `?<Segment init: NEAR_Z>`
     11          unsigned char point_log_buf;
   \                     point_log_buf:
   \   00000000                      DS 1
     12          

   \                                 In segment FARCODE, align 2, keep-with-next
     13           void write_log_info(unsigned char sost,unsigned char mesto)
   \                     write_log_info:
     14          {
   \   00000000   ........           CALL    ?PROLOGUE6_L09
   \   00000004                      REQUIRE ?Register_R4_is_cg_reg
   \   00000004                      REQUIRE ?Register_R5_is_cg_reg
   \   00000004   9726               SBIW    R29:R28, 6
   \   00000006   2F90               MOV     R25, R16
   \   00000008   2F81               MOV     R24, R17
     15          
     16          unsigned char buf[6];
     17          
     18          *(unsigned long int*)&buf[0]=burst_ds_r();             
   \   0000000A   ........           CALL    burst_ds_r
   \   0000000E   8308               ST      Y, R16
   \   00000010   8319               STD     Y+1, R17
   \   00000012   832A               STD     Y+2, R18
   \   00000014   833B               STD     Y+3, R19
     19          buf[4]=sost;
   \   00000016   839C               STD     Y+4, R25
     20          buf[5]=mesto;
   \   00000018   838D               STD     Y+5, R24
     21          WrArrayToFlesh(BEG_BUF_LOG+point_log_buf*6,&buf[0],6,0,0);
   \   0000001A   E070               LDI     R23, 0
   \   0000001C   E060               LDI     R22, 0
   \   0000001E   E046               LDI     R20, 6
   \   00000020   E050               LDI     R21, 0
   \   00000022   019E               MOVW    R19:R18, R29:R28
   \   00000024   012A               MOVW    R5:R4, R21:R20
   \   00000026   9140....           LDS     R20, point_log_buf
   \   0000002A   ....               RCALL   ?Subroutine1
   \                     ??CrossCallReturnLabel_7:
   \   0000002C   500C               SUBI    R16, 12
   \   0000002E   4F1E               SBCI    R17, 254
   \   00000030   01A2               MOVW    R21:R20, R5:R4
   \   00000032   ........           CALL    WrArrayToFlesh
     22          point_log_buf++;
   \   00000036   ....               LDI     R30, LOW(point_log_buf)
   \   00000038   ....               LDI     R31, (point_log_buf) >> 8
   \   0000003A   8100               LD      R16, Z
   \   0000003C   9503               INC     R16
   \   0000003E   8300               ST      Z, R16
     23          if(point_log_buf>=L_LOG)point_log_buf=0;
   \   00000040   3208               CPI     R16, 40
   \   00000042   F008               BRCS    ??write_log_info_0
   \   00000044   8250               ST      Z, R5
     24          }
   \                     ??write_log_info_0:
   \   00000046   9626               ADIW    R29:R28, 6
   \   00000048   E0E6               LDI     R30, 6
   \   0000004A   ........           JMP     ?EPILOGUE_B6_L09

   \                                 In segment FARCODE, align 2, keep-with-next
   \                     ?Subroutine1:
   \   00000000   E006               LDI     R16, 6
   \   00000002   E010               LDI     R17, 0
   \   00000004   ........           JMP     ?S_EC_MUL_L02
     25          
     26          

   \                                 In segment FARCODE, align 2, keep-with-next
     27          void serch_point_log (void)
   \                     serch_point_log:
     28          {
   \   00000000   ........           CALL    ?PROLOGUE4_L09
   \   00000004   9728               SBIW    R29:R28, 8
     29          
     30          unsigned int i;
     31          union
     32               {
     33                unsigned char bytes[4]; 
     34                unsigned long int word;
     35               }temp_long,temp_long1;     
     36          
     37          
     38          RdFromFleshToArr(BEG_BUF_LOG,&buf_tx_232[0],(L_LOG*6));
   \   00000006   ....               LDI     R26, LOW(buf_tx_232)
   \   00000008   ....               LDI     R27, (buf_tx_232) >> 8
   \   0000000A   EF40               LDI     R20, 240
   \   0000000C   E050               LDI     R21, 0
   \   0000000E   019D               MOVW    R19:R18, R27:R26
   \   00000010   EF04               LDI     R16, 244
   \   00000012   E011               LDI     R17, 1
   \   00000014   ........           CALL    RdFromFleshToArr
     39          
     40          temp_long.bytes[0]=buf_tx_232[0];
   \   00000018   910C               LD      R16, X
   \   0000001A   8308               ST      Y, R16
     41          temp_long.bytes[1]=buf_tx_232[1];
   \   0000001C   01FD               MOVW    R31:R30, R27:R26
   \   0000001E   8101               LDD     R16, Z+1
   \   00000020   8309               STD     Y+1, R16
     42          temp_long.bytes[2]=buf_tx_232[2];
   \   00000022   8102               LDD     R16, Z+2
   \   00000024   830A               STD     Y+2, R16
     43          temp_long.bytes[3]=buf_tx_232[3];
   \   00000026   8103               LDD     R16, Z+3
   \   00000028   830B               STD     Y+3, R16
     44          if(temp_long.word==0)
   \   0000002A   8108               LD      R16, Y
   \   0000002C   8119               LDD     R17, Y+1
   \   0000002E   812A               LDD     R18, Y+2
   \   00000030   813B               LDD     R19, Y+3
   \   00000032   2B01               OR      R16, R17
   \   00000034   2B02               OR      R16, R18
   \   00000036   2B03               OR      R16, R19
   \   00000038   F421               BRNE    ??serch_point_log_0
     45             {
     46             point_log_buf=0;
   \                     ??serch_point_log_1:
   \   0000003A   E000               LDI     R16, 0
   \   0000003C   9300....           STS     point_log_buf, R16
     47             return;
   \   00000040   C03F               RJMP    ??serch_point_log_2
     48             }
     49             
     50          for(i=0;i<(L_LOG-1);i++)
   \                     ??serch_point_log_0:
   \   00000042   E080               LDI     R24, 0
   \   00000044   E090               LDI     R25, 0
   \   00000046   C005               RJMP    ??serch_point_log_3
   \                     ??serch_point_log_4:
   \   00000048   9601               ADIW    R25:R24, 1
   \   0000004A   3287               CPI     R24, 39
   \   0000004C   E000               LDI     R16, 0
   \   0000004E   0790               CPC     R25, R16
   \   00000050   F7A0               BRCC    ??serch_point_log_1
     51            {
     52            temp_long.bytes[0]=buf_tx_232[i*6];
   \                     ??serch_point_log_3:
   \   00000052   01AC               MOVW    R21:R20, R25:R24
   \   00000054   ....               RCALL   ?Subroutine1
   \                     ??CrossCallReturnLabel_8:
   \   00000056   01FD               MOVW    R31:R30, R27:R26
   \   00000058   ....               RCALL   ?Subroutine0
   \                     ??CrossCallReturnLabel_0:
   \   0000005A   8328               ST      Y, R18
     53            temp_long.bytes[1]=buf_tx_232[(i*6)+1];
   \   0000005C   01FD               MOVW    R31:R30, R27:R26
   \   0000005E   9631               ADIW    R31:R30, 1
   \   00000060   ....               RCALL   ?Subroutine0
   \                     ??CrossCallReturnLabel_1:
   \   00000062   8329               STD     Y+1, R18
     54            temp_long.bytes[2]=buf_tx_232[(i*6)+2];
   \   00000064   01FD               MOVW    R31:R30, R27:R26
   \   00000066   9632               ADIW    R31:R30, 2
   \   00000068   ....               RCALL   ?Subroutine0
   \                     ??CrossCallReturnLabel_2:
   \   0000006A   832A               STD     Y+2, R18
     55            temp_long.bytes[3]=buf_tx_232[(i*6)+3];
   \   0000006C   01FD               MOVW    R31:R30, R27:R26
   \   0000006E   9633               ADIW    R31:R30, 3
   \   00000070   ....               RCALL   ?Subroutine0
   \                     ??CrossCallReturnLabel_3:
   \   00000072   832B               STD     Y+3, R18
     56            
     57            temp_long1.bytes[0]=buf_tx_232[(i*6)+6];
   \   00000074   01FD               MOVW    R31:R30, R27:R26
   \   00000076   9636               ADIW    R31:R30, 6
   \   00000078   ....               RCALL   ?Subroutine0
   \                     ??CrossCallReturnLabel_4:
   \   0000007A   832C               STD     Y+4, R18
     58            temp_long1.bytes[1]=buf_tx_232[(i*6)+6+1];
   \   0000007C   01FD               MOVW    R31:R30, R27:R26
   \   0000007E   9637               ADIW    R31:R30, 7
   \   00000080   ....               RCALL   ?Subroutine0
   \                     ??CrossCallReturnLabel_5:
   \   00000082   832D               STD     Y+5, R18
     59            temp_long1.bytes[2]=buf_tx_232[(i*6)+6+2];
   \   00000084   01FD               MOVW    R31:R30, R27:R26
   \   00000086   9638               ADIW    R31:R30, 8
   \   00000088   ....               RCALL   ?Subroutine0
   \                     ??CrossCallReturnLabel_6:
   \   0000008A   832E               STD     Y+6, R18
     60            temp_long1.bytes[3]=buf_tx_232[(i*6)+6+3];
   \   0000008C   01FD               MOVW    R31:R30, R27:R26
   \   0000008E   9639               ADIW    R31:R30, 9
   \   00000090   0FE0               ADD     R30, R16
   \   00000092   1FF1               ADC     R31, R17
   \   00000094   8100               LD      R16, Z
   \   00000096   830F               STD     Y+7, R16
     61            
     62            if(temp_long1.word<temp_long.word) 
   \   00000098   810C               LDD     R16, Y+4
   \   0000009A   811D               LDD     R17, Y+5
   \   0000009C   813F               LDD     R19, Y+7
   \   0000009E   8148               LD      R20, Y
   \   000000A0   8159               LDD     R21, Y+1
   \   000000A2   816A               LDD     R22, Y+2
   \   000000A4   817B               LDD     R23, Y+3
   \   000000A6   1704               CP      R16, R20
   \   000000A8   0715               CPC     R17, R21
   \   000000AA   0726               CPC     R18, R22
   \   000000AC   0737               CPC     R19, R23
   \   000000AE   F660               BRCC    ??serch_point_log_4
     63               {
     64               point_log_buf=i+1; 
   \   000000B0   9583               INC     R24
   \   000000B2   9380....           STS     point_log_buf, R24
     65               if(point_log_buf>=L_LOG)point_log_buf=0; 
   \   000000B6   9100....           LDS     R16, point_log_buf
   \   000000BA   3208               CPI     R16, 40
   \   000000BC   F008               BRCS    $+2+2
   \   000000BE   CFBD               RJMP    ??serch_point_log_1
   \                     ??serch_point_log_2:
   \   000000C0   9628               ADIW    R29:R28, 8
   \   000000C2   E0E4               LDI     R30, 4
   \   000000C4   ........           JMP     ?EPILOGUE_B4_L09
     66               return;
     67               }
     68            }
     69            
     70           point_log_buf=0; 
     71          }  

   \                                 In segment FARCODE, align 2, keep-with-next
   \                     ?Subroutine0:
   \   00000000   0FE0               ADD     R30, R16
   \   00000002   1FF1               ADC     R31, R17
   \   00000004   8120               LD      R18, Z
   \   00000006   9508               RET
     72          
     73          
     74          

   Maximum stack usage in bytes:

     Function              CSTACK RSTACK
     --------              ------ ------
     serch_point_log          12      6
       -> RdFromFleshToArr    12      3
     write_log_info           12      6
       -> burst_ds_r          12      3
       -> WrArrayToFlesh      12      3


   Segment part sizes:

     Function/Label  Bytes
     --------------  -----
     point_log_buf      1
     write_log_info    78
     ?Subroutine1       8
     serch_point_log  200
     ?Subroutine0       8
      Others            7

 
 294 bytes in segment FARCODE
   7 bytes in segment INITTAB
   1 byte  in segment NEAR_Z
 
 294 bytes of CODE memory (+ 7 bytes shared)
   1 byte  of DATA memory

Errors: none
Warnings: none
