##############################################################################
#                                                                            #
#                                                      02/Oct/2007  14:56:16 #
# IAR Atmel AVR C/C++ Compiler V4.12A/W32, Evaluation Version                #
# Copyright 1996-2005 IAR Systems. All rights reserved.                      #
#                                                                            #
#    Source file  =  D:\PRJIAR\NSS270907\KP7(270907)\prov.c                  #
#    Command line =  "D:\PRJIAR\NSS270907\KP7(270907)\prov.c" --cpu=m1280    #
#                    -ms -o "D:\PRJIAR\NSS270907\KP7(270907)\Debug\Obj\"     #
#                    -lCN "D:\PRJIAR\NSS270907\KP7(270907)\Debug\List\" -lA  #
#                    "D:\PRJIAR\NSS270907\KP7(270907)\Debug\List\" -y        #
#                    --initializers_in_flash -z6 --no_inline                 #
#                    --no_cross_call --no_tbaa --debug -e -I "D:\Program     #
#                    Files\IAR Systems\Embedded Workbench 4.0                #
#                    Evaluation\avr\INC\" -I "D:\Program Files\IAR           #
#                    Systems\Embedded Workbench 4.0                          #
#                    Evaluation\avr\INC\DLIB\" --eeprom_size 4096            #
#                    --dlib_config "D:\Program Files\IAR Systems\Embedded    #
#                    Workbench 4.0 Evaluation\avr\LIB\DLIB\dlAVR-3s-ec-n.h"  #
#    List file    =  D:\PRJIAR\NSS270907\KP7(270907)\Debug\List\prov.lst     #
#    Object file  =  D:\PRJIAR\NSS270907\KP7(270907)\Debug\Obj\prov.r90      #
#                                                                            #
#                                                                            #
##############################################################################

D:\PRJIAR\NSS270907\KP7(270907)\prov.c
      1          #include <iom1280.h> 

   \                                 In segment ABSOLUTE, at 0x134
   \   union <unnamed> volatile __ext_io _A_UBRR3
   \                     _A_UBRR3:
   \   00000000                      DS 2

   \                                 In segment ABSOLUTE, at 0x131
   \   union <unnamed> volatile __ext_io _A_UCSR3B
   \                     _A_UCSR3B:
   \   00000000                      DS 1

   \                                 In segment ABSOLUTE, at 0x105
   \   union <unnamed> volatile __ext_io _A_PORTJ
   \                     _A_PORTJ:
   \   00000000                      DS 1

   \                                 In segment ABSOLUTE, at 0x102
   \   union <unnamed> volatile __ext_io _A_PORTH
   \                     _A_PORTH:
   \   00000000                      DS 1

   \                                 In segment ABSOLUTE, at 0xd4
   \   union <unnamed> volatile __io _A_UBRR2
   \                     _A_UBRR2:
   \   00000000                      DS 2

   \                                 In segment ABSOLUTE, at 0xd1
   \   union <unnamed> volatile __io _A_UCSR2B
   \                     _A_UCSR2B:
   \   00000000                      DS 1

   \                                 In segment ABSOLUTE, at 0xcc
   \   union <unnamed> volatile __io _A_UBRR1
   \                     _A_UBRR1:
   \   00000000                      DS 2

   \                                 In segment ABSOLUTE, at 0xc9
   \   union <unnamed> volatile __io _A_UCSR1B
   \                     _A_UCSR1B:
   \   00000000                      DS 1

   \                                 In segment ABSOLUTE, at 0x2b
   \   union <unnamed> volatile __io _A_PORTD
   \                     _A_PORTD:
   \   00000000                      DS 1
      2          #include "dfpin.h"
      3          #include "dfproc.h"
      4          #include "ozu_map.h"
      5          
      6          extern unsigned char Rs485_1_buf_rx_tx[MAX_BUF_RS485_1];
      7          extern unsigned char Rs485_2_buf_rx_tx[MAX_BUF_RS485_2];
      8          extern unsigned char Rs232_2_buf_rx_tx[MAX_BUF_RS232_2];
      9          extern struct
     10                  { // т фтюшіэюь ъюфх
     11                    char r_sec;
     12                    char r_min;
     13                    char r_hor;
     14                    char r_day;
     15                    char r_date;
     16                    char r_month;
     17                    char r_year;
     18                    char r_control;
     19                  }  real_time; 
     20          
     21          
     22          
     23          extern struct                   //ёҐЁґъҐґЁр юяшё√тр■їр  ЁрсюҐґ яюЁҐр "RS485_1" 
     24            {
     25            unsigned int  cnt_bt_rx_tx;       // ёіхҐішъ срщҐют эр яЁшхь-яхЁхфріґ
     26            unsigned int  cnt_tm_tx_out;    // ёіхҐішъ тЁхьхэш эр ґфхЁцрэшх rts яюёых яхЁхфріш
     27            unsigned int  cnt_tm_pre_tx;    // ёіхҐішъ тЁхьхэш эр ґфхЁцрэшх rts яхЁхф яхЁхфріш
     28            unsigned int  vol_tm_tx_out;    // яЁхфхы ёіхҐішъ тЁхьхэш эр ґфхЁцрэшх rts яюёых яхЁхфріш
     29            unsigned int  cnt_tm_rx_out;   //  ёіхҐішъ тЁхьхэш эр юяЁхфхыхэшх ъюэІр яЁшхьр
     30            unsigned int  vol_tm_rx_out;   //  яЁхфхы тЁхьхэш эр юяЁхфхыхэшх ъюэІр яЁшхьр
     31            unsigned int  cnt_tm_out;     // ёіхҐішъ тЁхьхэш эр яЁшхь 
     32            unsigned int  vol_tm_out;     // яЁхфхы ёіхҐішър тЁхьхэш эр яЁшхь 
     33            unsigned char *p_data485;   // ґърчрҐхы№ эр сґЄхЁ яхЁхфріш
     34            }Rs485_1,Rs485_2,Rs232_2;
     35            
     36          extern struct
     37           {
     38           unsigned char busy : 1;
     39           unsigned char rec : 1;
     40           unsigned char tm_out : 1;
     41           unsigned char tx : 1;
     42           unsigned char over : 1;
     43           unsigned char buffed : 1;
     44           } fl_485_1,fl_485_2,fl_232_2;
     45          
     46          extern unsigned long int burst(void);
     47          extern unsigned long int burst_ds_r(void);
     48          extern void RdFromFleshToArr(unsigned int adres_flesh, unsigned char *adres_ozu,unsigned int num);  
     49          extern void WrArrayToFlesh(unsigned int adres_flesh,  unsigned char *adres_ozu, unsigned int num,unsigned char flag,unsigned char znach);  //чряшё№ ъюэЄшуґЁрІшш ъя тю ЄыхЇ
     50          

   \                                 In segment NEAR_Z, align 1, keep-with-next
   \   00000000                      REQUIRE `?<Segment init: NEAR_Z>`
     51          unsigned char proverka;
   \                     proverka:
   \   00000000                      DS 1
     52          
     53          
     54          

   \                                 In segment CODE, align 2, keep-with-next
     55          void tx_rs485_1(void)
   \                     tx_rs485_1:
     56          {
   \   00000000   ........           CALL    ?PROLOGUE4_L09
     57            unsigned int i;
     58           
     59              Rs485_1.cnt_bt_rx_tx=10;
   \   00000004   ....               LDI     R30, LOW(Rs485_1)
   \   00000006   ....               LDI     R31, (Rs485_1) >> 8
   \   00000008   E00A               LDI     R16, 10
   \   0000000A   E010               LDI     R17, 0
   \   0000000C   8300               ST      Z, R16
   \   0000000E   8311               STD     Z+1, R17
     60              for(i=0;i<Rs485_1.cnt_bt_rx_tx;i++)Rs485_1_buf_rx_tx[i]=i;
   \   00000010   E080               LDI     R24, 0
   \   00000012   E090               LDI     R25, 0
   \   00000014   C006               RJMP    ??tx_rs485_1_0
   \                     ??tx_rs485_1_1:
   \   00000016   2F08               MOV     R16, R24
   \   00000018   01DC               MOVW    R27:R26, R25:R24
   \   0000001A   ....               SUBI    R26, LOW((-(Rs485_1_buf_rx_tx) & 0xFFFF))
   \   0000001C   ....               SBCI    R27, (-(Rs485_1_buf_rx_tx) & 0xFFFF) >> 8
   \   0000001E   930C               ST      X, R16
   \   00000020   9601               ADIW    R25:R24, 1
   \                     ??tx_rs485_1_0:
   \   00000022   8100               LD      R16, Z
   \   00000024   8111               LDD     R17, Z+1
   \   00000026   1780               CP      R24, R16
   \   00000028   0791               CPC     R25, R17
   \   0000002A   F3A8               BRCS    ??tx_rs485_1_1
     61              Rs485_1.p_data485=&Rs485_1_buf_rx_tx[0];
   \   0000002C   ....               LDI     R16, LOW(Rs485_1_buf_rx_tx)
   \   0000002E   ....               LDI     R17, (Rs485_1_buf_rx_tx) >> 8
   \   00000030   8B00               STD     Z+16, R16
   \   00000032   8B11               STD     Z+17, R17
     62              //чфхё№ фюыцэр с√Ґ№ ЄґэъІш  эрёҐЁющъш яюЁҐр яю ъюэҐхъёҐґ.
     63           
     64              UBRR3H=R2400_H;
   \   00000034   E001               LDI     R16, 1
   \   00000036   93000135           STS     309, R16
     65              UBRR3L=R2400_L;
   \   0000003A   E90F               LDI     R16, 159
   \   0000003C   93000134           STS     308, R16
     66              
     67              UCSR3B=UCSR3B & ~(RXCIE | RXEN);      
   \   00000040   91000131           LDS     R16, 305
   \   00000044   760F               ANDI    R16, 0x6F
   \   00000046   93000131           STS     305, R16
     68              
     69              Rs485_1.cnt_tm_tx_out=0;
   \   0000004A   E000               LDI     R16, 0
   \   0000004C   E010               LDI     R17, 0
   \   0000004E   8302               STD     Z+2, R16
   \   00000050   8303               STD     Z+3, R16
     70              Rs485_1.vol_tm_tx_out=15; 
   \   00000052   E00F               LDI     R16, 15
   \   00000054   8306               STD     Z+6, R16
   \   00000056   8317               STD     Z+7, R17
     71              
     72              Rs485_1.cnt_tm_pre_tx=20;// 20 ьшыышёхъґэф
   \   00000058   E104               LDI     R16, 20
   \   0000005A   8304               STD     Z+4, R16
   \   0000005C   8315               STD     Z+5, R17
     73              
     74              Rs485_1.cnt_tm_rx_out=0;
   \   0000005E   8710               STD     Z+8, R17
   \   00000060   8711               STD     Z+9, R17
     75              Rs485_1.vol_tm_rx_out=10;// 5 ьшыышёхъґэф
   \   00000062   E00A               LDI     R16, 10
   \   00000064   8702               STD     Z+10, R16
   \   00000066   8713               STD     Z+11, R17
     76              
     77              
     78              Rs485_1.cnt_tm_out=0;
   \   00000068   8714               STD     Z+12, R17
   \   0000006A   8715               STD     Z+13, R17
     79              Rs485_1.vol_tm_out=600; // 600 ьшыышёхъґэф
   \   0000006C   E508               LDI     R16, 88
   \   0000006E   E012               LDI     R17, 2
   \   00000070   8706               STD     Z+14, R16
   \   00000072   8717               STD     Z+15, R17
     80            
     81              SET_RTS1;  //rts эр яхЁхфріґ
   \   00000074   91000105           LDS     R16, 261
   \   00000078   6004               ORI     R16, 0x04
   \   0000007A   93000105           STS     261, R16
     82               
     83          }
   \   0000007E   E0E4               LDI     R30, 4
   \   00000080   ........           JMP     ?EPILOGUE_B4_L09
     84          
     85          

   \                                 In segment CODE, align 2, keep-with-next
     86          void tx_rs485_2(void)
   \                     tx_rs485_2:
     87          {
   \   00000000   ........           CALL    ?PROLOGUE4_L09
     88            unsigned int i;
     89           
     90              Rs485_2.cnt_bt_rx_tx=10;
   \   00000004   ....               LDI     R30, LOW(Rs485_2)
   \   00000006   ....               LDI     R31, (Rs485_2) >> 8
   \   00000008   E00A               LDI     R16, 10
   \   0000000A   E010               LDI     R17, 0
   \   0000000C   8300               ST      Z, R16
   \   0000000E   8311               STD     Z+1, R17
     91              for(i=0;i<Rs485_2.cnt_bt_rx_tx;i++)Rs485_2_buf_rx_tx[i]=i;
   \   00000010   E080               LDI     R24, 0
   \   00000012   E090               LDI     R25, 0
   \   00000014   C006               RJMP    ??tx_rs485_2_0
   \                     ??tx_rs485_2_1:
   \   00000016   2F08               MOV     R16, R24
   \   00000018   01DC               MOVW    R27:R26, R25:R24
   \   0000001A   ....               SUBI    R26, LOW((-(Rs485_2_buf_rx_tx) & 0xFFFF))
   \   0000001C   ....               SBCI    R27, (-(Rs485_2_buf_rx_tx) & 0xFFFF) >> 8
   \   0000001E   930C               ST      X, R16
   \   00000020   9601               ADIW    R25:R24, 1
   \                     ??tx_rs485_2_0:
   \   00000022   8100               LD      R16, Z
   \   00000024   8111               LDD     R17, Z+1
   \   00000026   1780               CP      R24, R16
   \   00000028   0791               CPC     R25, R17
   \   0000002A   F3A8               BRCS    ??tx_rs485_2_1
     92              Rs485_2.p_data485=&Rs485_2_buf_rx_tx[0];
   \   0000002C   ....               LDI     R16, LOW(Rs485_2_buf_rx_tx)
   \   0000002E   ....               LDI     R17, (Rs485_2_buf_rx_tx) >> 8
   \   00000030   8B00               STD     Z+16, R16
   \   00000032   8B11               STD     Z+17, R17
     93              //чфхё№ фюыцэр с√Ґ№ ЄґэъІш  эрёҐЁющъш яюЁҐр яю ъюэҐхъёҐґ.
     94           
     95              UBRR1H=R2400_H;
   \   00000034   E001               LDI     R16, 1
   \   00000036   930000CD           STS     205, R16
     96              UBRR1L=R2400_L;
   \   0000003A   E90F               LDI     R16, 159
   \   0000003C   930000CC           STS     204, R16
     97              
     98              UCSR1B=UCSR1B & ~(RXCIE | RXEN);      
   \   00000040   910000C9           LDS     R16, 201
   \   00000044   760F               ANDI    R16, 0x6F
   \   00000046   930000C9           STS     201, R16
     99              
    100              Rs485_2.cnt_tm_tx_out=0;
   \   0000004A   E000               LDI     R16, 0
   \   0000004C   E010               LDI     R17, 0
   \   0000004E   8302               STD     Z+2, R16
   \   00000050   8303               STD     Z+3, R16
    101              Rs485_2.vol_tm_tx_out=15; 
   \   00000052   E00F               LDI     R16, 15
   \   00000054   8306               STD     Z+6, R16
   \   00000056   8317               STD     Z+7, R17
    102              
    103              Rs485_2.cnt_tm_pre_tx=20;// 20 ьшыышёхъґэф
   \   00000058   E104               LDI     R16, 20
   \   0000005A   8304               STD     Z+4, R16
   \   0000005C   8315               STD     Z+5, R17
    104              
    105              Rs485_2.cnt_tm_rx_out=0;
   \   0000005E   8710               STD     Z+8, R17
   \   00000060   8711               STD     Z+9, R17
    106              Rs485_2.vol_tm_rx_out=10;// 5 ьшыышёхъґэф
   \   00000062   E00A               LDI     R16, 10
   \   00000064   8702               STD     Z+10, R16
   \   00000066   8713               STD     Z+11, R17
    107              
    108              
    109              Rs485_2.cnt_tm_out=0;
   \   00000068   8714               STD     Z+12, R17
   \   0000006A   8715               STD     Z+13, R17
    110              Rs485_2.vol_tm_out=600; // 600 ьшыышёхъґэф
   \   0000006C   E508               LDI     R16, 88
   \   0000006E   E012               LDI     R17, 2
   \   00000070   8706               STD     Z+14, R16
   \   00000072   8717               STD     Z+15, R17
    111            
    112              SET_RTS3;  //rts эр яхЁхфріґ
   \   00000074   9A5C               SBI     0x0B, 0x04
    113               
    114          }
   \   00000076   E0E4               LDI     R30, 4
   \   00000078   ........           JMP     ?EPILOGUE_B4_L09
    115          

   \                                 In segment CODE, align 2, keep-with-next
    116          void tx_rs232_2(void)
   \                     tx_rs232_2:
    117          {
   \   00000000   ........           CALL    ?PROLOGUE4_L09
    118            unsigned int i;
    119           
    120              Rs232_2.cnt_bt_rx_tx=10;
   \   00000004   ....               LDI     R30, LOW(Rs232_2)
   \   00000006   ....               LDI     R31, (Rs232_2) >> 8
   \   00000008   E00A               LDI     R16, 10
   \   0000000A   E010               LDI     R17, 0
   \   0000000C   8300               ST      Z, R16
   \   0000000E   8311               STD     Z+1, R17
    121              for(i=0;i<Rs232_2.cnt_bt_rx_tx;i++)Rs232_2_buf_rx_tx[i]=i;
   \   00000010   E080               LDI     R24, 0
   \   00000012   E090               LDI     R25, 0
   \   00000014   C006               RJMP    ??tx_rs232_2_0
   \                     ??tx_rs232_2_1:
   \   00000016   2F08               MOV     R16, R24
   \   00000018   01DC               MOVW    R27:R26, R25:R24
   \   0000001A   ....               SUBI    R26, LOW((-(Rs232_2_buf_rx_tx) & 0xFFFF))
   \   0000001C   ....               SBCI    R27, (-(Rs232_2_buf_rx_tx) & 0xFFFF) >> 8
   \   0000001E   930C               ST      X, R16
   \   00000020   9601               ADIW    R25:R24, 1
   \                     ??tx_rs232_2_0:
   \   00000022   8100               LD      R16, Z
   \   00000024   8111               LDD     R17, Z+1
   \   00000026   1780               CP      R24, R16
   \   00000028   0791               CPC     R25, R17
   \   0000002A   F3A8               BRCS    ??tx_rs232_2_1
    122              Rs232_2.p_data485=&Rs232_2_buf_rx_tx[0];
   \   0000002C   ....               LDI     R16, LOW(Rs232_2_buf_rx_tx)
   \   0000002E   ....               LDI     R17, (Rs232_2_buf_rx_tx) >> 8
   \   00000030   8B00               STD     Z+16, R16
   \   00000032   8B11               STD     Z+17, R17
    123              //чфхё№ фюыцэр с√Ґ№ ЄґэъІш  эрёҐЁющъш яюЁҐр яю ъюэҐхъёҐґ.
    124           
    125              UBRR2H=R2400_H;
   \   00000034   E001               LDI     R16, 1
   \   00000036   930000D5           STS     213, R16
    126              UBRR2L=R2400_L;
   \   0000003A   E90F               LDI     R16, 159
   \   0000003C   930000D4           STS     212, R16
    127              
    128              UCSR2B=UCSR2B & ~(RXCIE | RXEN);      
   \   00000040   910000D1           LDS     R16, 209
   \   00000044   760F               ANDI    R16, 0x6F
   \   00000046   930000D1           STS     209, R16
    129              
    130              Rs232_2.cnt_tm_tx_out=0;
   \   0000004A   E000               LDI     R16, 0
   \   0000004C   E010               LDI     R17, 0
   \   0000004E   8302               STD     Z+2, R16
   \   00000050   8303               STD     Z+3, R16
    131              Rs232_2.vol_tm_tx_out=15; 
   \   00000052   E00F               LDI     R16, 15
   \   00000054   8306               STD     Z+6, R16
   \   00000056   8317               STD     Z+7, R17
    132              
    133              Rs232_2.cnt_tm_pre_tx=20;// 20 ьшыышёхъґэф
   \   00000058   E104               LDI     R16, 20
   \   0000005A   8304               STD     Z+4, R16
   \   0000005C   8315               STD     Z+5, R17
    134              
    135              Rs232_2.cnt_tm_rx_out=0;
   \   0000005E   8710               STD     Z+8, R17
   \   00000060   8711               STD     Z+9, R17
    136              Rs232_2.vol_tm_rx_out=10;// 5 ьшыышёхъґэф
   \   00000062   E00A               LDI     R16, 10
   \   00000064   8702               STD     Z+10, R16
   \   00000066   8713               STD     Z+11, R17
    137              
    138              
    139              Rs232_2.cnt_tm_out=0;
   \   00000068   8714               STD     Z+12, R17
   \   0000006A   8715               STD     Z+13, R17
    140              Rs232_2.vol_tm_out=600; // 600 ьшыышёхъґэф
   \   0000006C   E508               LDI     R16, 88
   \   0000006E   E012               LDI     R17, 2
   \   00000070   8706               STD     Z+14, R16
   \   00000072   8717               STD     Z+15, R17
    141            
    142              SET_RTS2;  //rts эр яхЁхфріґ
   \   00000074   91000102           LDS     R16, 258
   \   00000078   7F0B               ANDI    R16, 0xFB
   \   0000007A   93000102           STS     258, R16
    143               
    144          }
   \   0000007E   E0E4               LDI     R30, 4
   \   00000080   ........           JMP     ?EPILOGUE_B4_L09
    145          

   \                                 In segment CODE, align 2, keep-with-next
    146          void tx_rs232_time(void)
   \                     tx_rs232_time:
    147          {
    148             // if (proverka!=1)return;
    149             // proverka=0;
    150              proverka++;
   \   00000000   ....               LDI     R30, LOW(proverka)
   \   00000002   ....               LDI     R31, (proverka) >> 8
   \   00000004   8100               LD      R16, Z
   \   00000006   9503               INC     R16
   \   00000008   8300               ST      Z, R16
    151            
    152              UCSR2B=UCSR2B & ~(RXCIE | RXEN); 
   \   0000000A   910000D1           LDS     R16, 209
   \   0000000E   760F               ANDI    R16, 0x6F
   \   00000010   930000D1           STS     209, R16
    153              
    154           //   burst_ds_r();
    155              burst();
   \   00000014   ........           CALL    burst
    156              Rs232_2.cnt_bt_rx_tx=13;
   \   00000018   ....               LDI     R30, LOW(Rs232_2)
   \   0000001A   ....               LDI     R31, (Rs232_2) >> 8
   \   0000001C   E00D               LDI     R16, 13
   \   0000001E   E010               LDI     R17, 0
   \   00000020   8300               ST      Z, R16
   \   00000022   8311               STD     Z+1, R17
    157             // Rs232_2.cnt_bt_rx_tx=7;
    158             // Rs232_2_buf_rx_tx[1]=real_time.r_sec;
    159             // Rs232_2_buf_rx_tx[2]=real_time.r_min;
    160             // Rs232_2_buf_rx_tx[3]=real_time.r_hor;
    161             // Rs232_2_buf_rx_tx[4]=real_time.r_date;
    162             // Rs232_2_buf_rx_tx[5]=real_time.r_month;
    163             // Rs232_2_buf_rx_tx[6]=real_time.r_year;
    164              Rs232_2_buf_rx_tx[0]=proverka;
   \   00000024   9100....           LDS     R16, proverka
   \   00000028   9300....           STS     Rs232_2_buf_rx_tx, R16
    165              Rs232_2.p_data485=&Rs232_2_buf_rx_tx[0];
   \   0000002C   ....               LDI     R16, LOW(Rs232_2_buf_rx_tx)
   \   0000002E   ....               LDI     R17, (Rs232_2_buf_rx_tx) >> 8
   \   00000030   8B00               STD     Z+16, R16
   \   00000032   8B11               STD     Z+17, R17
    166              //чфхё№ фюыцэр с√Ґ№ ЄґэъІш  эрёҐЁющъш яюЁҐр яю ъюэҐхъёҐґ.
    167              
    168              
    169              UBRR2H=R2400_H;
   \   00000034   E001               LDI     R16, 1
   \   00000036   930000D5           STS     213, R16
    170              UBRR2L=R2400_L;
   \   0000003A   E90F               LDI     R16, 159
   \   0000003C   930000D4           STS     212, R16
    171              
    172                   
    173              Rs232_2.cnt_tm_tx_out=0;
   \   00000040   E000               LDI     R16, 0
   \   00000042   E010               LDI     R17, 0
   \   00000044   8302               STD     Z+2, R16
   \   00000046   8303               STD     Z+3, R16
    174              Rs232_2.vol_tm_tx_out=5; 
   \   00000048   E005               LDI     R16, 5
   \   0000004A   8306               STD     Z+6, R16
   \   0000004C   8317               STD     Z+7, R17
    175              
    176              Rs232_2.cnt_tm_pre_tx=5;// 20 ьшыышёхъґэф
   \   0000004E   8304               STD     Z+4, R16
   \   00000050   8315               STD     Z+5, R17
    177              
    178              Rs232_2.cnt_tm_rx_out=0;
   \   00000052   8710               STD     Z+8, R17
   \   00000054   8711               STD     Z+9, R17
    179              Rs232_2.vol_tm_rx_out=10;// 5 ьшыышёхъґэф
   \   00000056   E00A               LDI     R16, 10
   \   00000058   8702               STD     Z+10, R16
   \   0000005A   8713               STD     Z+11, R17
    180              
    181              
    182              Rs232_2.cnt_tm_out=0;
   \   0000005C   8714               STD     Z+12, R17
   \   0000005E   8715               STD     Z+13, R17
    183              Rs232_2.vol_tm_out=10; // 600 ьшыышёхъґэф
   \   00000060   8706               STD     Z+14, R16
   \   00000062   8717               STD     Z+15, R17
    184            
    185              SET_RTS2;  //rts эр яхЁхфріґ 
   \   00000064   91000102           LDS     R16, 258
   \   00000068   7F0B               ANDI    R16, 0xFB
   \   0000006A   93000102           STS     258, R16
    186          }
   \   0000006E   9508               RET
    187          
    188          

   \                                 In segment CODE, align 2, keep-with-next
    189          void test_fram(void)
   \                     test_fram:
    190          {
   \   00000000   93BA               ST      -Y, R27
   \   00000002   93AA               ST      -Y, R26
    191          
    192              UCSR2B=UCSR2B & ~(RXCIE | RXEN); 
   \   00000004   910000D1           LDS     R16, 209
   \   00000008   760F               ANDI    R16, 0x6F
   \   0000000A   930000D1           STS     209, R16
    193              
    194              Rs232_2.cnt_bt_rx_tx=10;
   \   0000000E   ....               LDI     R26, LOW(Rs232_2)
   \   00000010   ....               LDI     R27, (Rs232_2) >> 8
   \   00000012   E00A               LDI     R16, 10
   \   00000014   E010               LDI     R17, 0
   \   00000016   930D               ST      X+, R16
   \   00000018   931C               ST      X, R17
   \   0000001A   9711               SBIW    R27:R26, 1
    195              RdFromFleshToArr(10,&Rs232_2_buf_rx_tx[0],Rs232_2.cnt_bt_rx_tx);
   \   0000001C   E04A               LDI     R20, 10
   \   0000001E   E050               LDI     R21, 0
   \   00000020   ....               LDI     R18, LOW(Rs232_2_buf_rx_tx)
   \   00000022   ....               LDI     R19, (Rs232_2_buf_rx_tx) >> 8
   \   00000024   ........           CALL    RdFromFleshToArr
    196              Rs232_2.p_data485=&Rs232_2_buf_rx_tx[0];
   \   00000028   ....               LDI     R16, LOW(Rs232_2_buf_rx_tx)
   \   0000002A   ....               LDI     R17, (Rs232_2_buf_rx_tx) >> 8
   \   0000002C   9650               ADIW    R27:R26, 16
   \   0000002E   930D               ST      X+, R16
   \   00000030   931C               ST      X, R17
   \   00000032   9751               SBIW    R27:R26, 17
    197              //чфхё№ фюыцэр с√Ґ№ ЄґэъІш  эрёҐЁющъш яюЁҐр яю ъюэҐхъёҐґ.
    198              
    199              
    200              UBRR2H=R2400_H;
   \   00000034   E001               LDI     R16, 1
   \   00000036   930000D5           STS     213, R16
    201              UBRR2L=R2400_L;
   \   0000003A   E90F               LDI     R16, 159
   \   0000003C   930000D4           STS     212, R16
    202              
    203                   
    204              Rs232_2.cnt_tm_tx_out=0;
   \   00000040   E000               LDI     R16, 0
   \   00000042   E010               LDI     R17, 0
   \   00000044   9612               ADIW    R27:R26, 2
   \   00000046   930D               ST      X+, R16
   \   00000048   930C               ST      X, R16
   \   0000004A   9713               SBIW    R27:R26, 3
    205              Rs232_2.vol_tm_tx_out=5; 
   \   0000004C   E005               LDI     R16, 5
   \   0000004E   9616               ADIW    R27:R26, 6
   \   00000050   930D               ST      X+, R16
   \   00000052   931C               ST      X, R17
   \   00000054   9717               SBIW    R27:R26, 7
    206              
    207              Rs232_2.cnt_tm_pre_tx=5;// 20 ьшыышёхъґэф
   \   00000056   9614               ADIW    R27:R26, 4
   \   00000058   930D               ST      X+, R16
   \   0000005A   931C               ST      X, R17
   \   0000005C   9715               SBIW    R27:R26, 5
    208              
    209              Rs232_2.cnt_tm_rx_out=0;
   \   0000005E   9618               ADIW    R27:R26, 8
   \   00000060   931D               ST      X+, R17
   \   00000062   931C               ST      X, R17
   \   00000064   9719               SBIW    R27:R26, 9
    210              Rs232_2.vol_tm_rx_out=10;// 5 ьшыышёхъґэф
   \   00000066   E00A               LDI     R16, 10
   \   00000068   961A               ADIW    R27:R26, 10
   \   0000006A   930D               ST      X+, R16
   \   0000006C   931C               ST      X, R17
   \   0000006E   971B               SBIW    R27:R26, 11
    211              
    212              
    213              Rs232_2.cnt_tm_out=0;
   \   00000070   961C               ADIW    R27:R26, 12
   \   00000072   931D               ST      X+, R17
   \   00000074   931C               ST      X, R17
   \   00000076   971D               SBIW    R27:R26, 13
    214              Rs232_2.vol_tm_out=10; // 600 ьшыышёхъґэф
   \   00000078   961E               ADIW    R27:R26, 14
   \   0000007A   930D               ST      X+, R16
   \   0000007C   931C               ST      X, R17
    215            
    216              SET_RTS2;  //rts эр яхЁхфріґ 
   \   0000007E   91000102           LDS     R16, 258
   \   00000082   7F0B               ANDI    R16, 0xFB
   \   00000084   93000102           STS     258, R16
    217          }
   \   00000088   91A9               LD      R26, Y+
   \   0000008A   91B9               LD      R27, Y+
   \   0000008C   9508               RET

   Maximum stack usage in bytes:

     Function              CSTACK RSTACK
     --------              ------ ------
     test_fram                 2      2
       -> RdFromFleshToArr     2      2
     tx_rs232_2                4      2
     tx_rs232_time             0      2
       -> burst                0      2
     tx_rs485_1                4      2
     tx_rs485_2                4      2


   Segment part sizes:

     Function/Label Bytes
     -------------- -----
     _A_UBRR3          2
     _A_UCSR3B         1
     _A_PORTJ          1
     _A_PORTH          1
     _A_UBRR2          2
     _A_UCSR2B         1
     _A_UBRR1          2
     _A_UCSR1B         1
     _A_PORTD          1
     proverka          1
     tx_rs485_1      132
     tx_rs485_2      124
     tx_rs232_2      132
     tx_rs232_time   112
     test_fram       142
      Others           7

 
  12 bytes in segment ABSOLUTE
 642 bytes in segment CODE
   7 bytes in segment INITTAB
   1 byte  in segment NEAR_Z
 
 642 bytes of CODE memory (+  7 bytes shared)
   1 byte  of DATA memory (+ 12 bytes shared)

Errors: none
Warnings: none
